
C:\EMBCxx_300\EMBCxx_beacon\project\EMBC02\build\EMBC02.elf:     file format elf32-c816
C:\EMBCxx_300\EMBCxx_beacon\project\EMBC02\build\EMBC02.elf


Disassembly of section .text:

00100000 <_start>:
_stext():
  100000:	00 33 ff f9 		JUMP	0x0006		; 100018 <main_init>
  100004:	00 33 ff 65 		JUMP	0x009a		; 100268 <__int1_h>
  100008:	00 33 fe fa 		JUMP	0x0105		; 100414 <__int2_h>
  10000c:	00 33 ff be 		JUMP	0x0041		; 100104 <__int0_h>

00100010 <_empty_IRQHandler>:
_empty_IRQHandler():
  100010:	00 23 ff ff 		JUMP	ip
  100014:	00 33 ed 64 		JUMP	0x129b		; 104a6c <_GASP_DOC_Monitor_Reset>

00100018 <main_init>:
main_init():
  100018:	00 0e a7 fd 		MOVE	i3h,#0x2
  10001c:	00 0e a6 80 		MOVE	i3l,#0x7f

00100020 <crt0_init_page0_data>:
crt0_init_page0_data():
  100020:	00 0e a1 91 		MOVE	i0h,#0x6e
  100024:	00 0e a0 c5 		MOVE	i0l,#0x3a
  100028:	00 0e a3 ff 		MOVE	i1h,#0x0
  10002c:	00 0e a2 53 		MOVE	i1l,#0xac
  100030:	00 0e a5 ff 		MOVE	i2h,#0x0
  100034:	00 0e a4 0c 		MOVE	i2l,#0xf3
  100038:	00 33 ff ee 		JUMP	0x0011		; 100044 <crt0_init_page0_data_cmp>

0010003c <crt0_init_page0_data_loop>:
crt0_init_page0_data_loop():
  10003c:	00 10 af 01 		MOVE	a,(i0,1)+
  100040:	00 03 5f 01 		MOVE	(i1,1)+,a

00100044 <crt0_init_page0_data_cmp>:
crt0_init_page0_data_cmp():
  100044:	00 0c 13 5f 		CMP	i1h,i2h
  100048:	00 35 ff f0 		JLT	0x000f		; 10003c <crt0_init_page0_data_loop>
  10004c:	00 0c 12 4f 		CMP	i1l,i2l
  100050:	00 35 ff f0 		JLT	0x000f		; 10003c <crt0_init_page0_data_loop>

00100054 <crt0_init_data>:
crt0_init_data():
  100054:	00 0e a1 91 		MOVE	i0h,#0x6e
  100058:	00 0e a0 7e 		MOVE	i0l,#0x81
  10005c:	00 0e a3 fe 		MOVE	i1h,#0x1
  100060:	00 0e a2 c5 		MOVE	i1l,#0x3a
  100064:	00 0e a5 fe 		MOVE	i2h,#0x1
  100068:	00 0e a4 37 		MOVE	i2l,#0xc8
  10006c:	00 33 ff e1 		JUMP	0x001e		; 100078 <crt0_init_data_cmp>

00100070 <crt0_init_data_loop>:
crt0_init_data_loop():
  100070:	00 10 af 01 		MOVE	a,(i0,1)+
  100074:	00 03 5f 01 		MOVE	(i1,1)+,a

00100078 <crt0_init_data_cmp>:
crt0_init_data_cmp():
  100078:	00 0c 13 5f 		CMP	i1h,i2h
  10007c:	00 35 ff e3 		JLT	0x001c		; 100070 <crt0_init_data_loop>
  100080:	00 0c 12 4f 		CMP	i1l,i2l
  100084:	00 35 ff e3 		JLT	0x001c		; 100070 <crt0_init_data_loop>

00100088 <crt0_init_page0_bss>:
crt0_init_page0_bss():
  100088:	00 0e a3 ff 		MOVE	i1h,#0x0
  10008c:	00 0e a2 7f 		MOVE	i1l,#0x80
  100090:	00 0e a5 ff 		MOVE	i2h,#0x0
  100094:	00 0e a4 53 		MOVE	i2l,#0xac
  100098:	00 0e ae ff 		MOVE	r0,#0x0
  10009c:	00 33 ff d6 		JUMP	0x0029		; 1000a4 <crt0_init_page0_bss_cmp>

001000a0 <crt0_init_page0_bss_loop>:
crt0_init_page0_bss_loop():
  1000a0:	00 03 5e 01 		MOVE	(i1,1)+,r0

001000a4 <crt0_init_page0_bss_cmp>:
crt0_init_page0_bss_cmp():
  1000a4:	00 0c 13 5f 		CMP	i1h,i2h
  1000a8:	00 35 ff d7 		JLT	0x0028		; 1000a0 <crt0_init_page0_bss_loop>
  1000ac:	00 0c 12 4f 		CMP	i1l,i2l
  1000b0:	00 35 ff d7 		JLT	0x0028		; 1000a0 <crt0_init_page0_bss_loop>

001000b4 <crt0_init_bss>:
crt0_init_bss():
  1000b4:	00 0e a3 fe 		MOVE	i1h,#0x1
  1000b8:	00 0e a2 ff 		MOVE	i1l,#0x0
  1000bc:	00 0e a5 fe 		MOVE	i2h,#0x1
  1000c0:	00 0e a4 c5 		MOVE	i2l,#0x3a
  1000c4:	00 0e ae ff 		MOVE	r0,#0x0
  1000c8:	00 33 ff cb 		JUMP	0x0034		; 1000d0 <crt0_init_bss_cmp>

001000cc <crt0_init_bss_loop>:
crt0_init_bss_loop():
  1000cc:	00 03 5e 01 		MOVE	(i1,1)+,r0

001000d0 <crt0_init_bss_cmp>:
crt0_init_bss_cmp():
  1000d0:	00 0c 13 5f 		CMP	i1h,i2h
  1000d4:	00 35 ff cc 		JLT	0x0033		; 1000cc <crt0_init_bss_loop>
  1000d8:	00 0c 12 4f 		CMP	i1l,i2l
  1000dc:	00 35 ff cc 		JLT	0x0033		; 1000cc <crt0_init_bss_loop>
  1000e0:	00 0e aa 1f 		MOVE	stat,#0xe0
  1000e4:	00 3a f1 eb 		CALLS	0x0e14		; 103850 <main>

001000e8 <_cleanup>:
main_end():
  1000e8:	00 0b df ff 		HALT
  1000ec:	00 0e aa 1f 		MOVE	stat,#0xe0
  1000f0:	00 33 ff c5 		JUMP	0x003a		; 1000e8 <_cleanup>

001000f4 <__disable_GIE>:
__disable_GIE():
  1000f4:	00 0e 2a 20 		AND	stat,#0xdf
  1000f8:	00 0e fa df 		TSTPAT	stat,#0x20
  1000fc:	00 32 ff c2 		JZC	0x003d		; 1000f4 <__disable_GIE>
  100100:	00 23 ff ff 		JUMP	ip

00100104 <__int0_h>:
__int0_h():
  100104:	00 03 7f ff 		MOVE	-(i3,1),a
  100108:	00 0b 7f ff 		SFLAG
  10010c:	00 03 7f ff 		MOVE	-(i3,1),a
  100110:	00 03 78 ff 		MOVE	-(i3,1),ipl
  100114:	00 03 79 ff 		MOVE	-(i3,1),iph
  100118:	00 04 a8 9e 		MOVE	ipl,0x61	; 61 <RegInt0Sts>
  10011c:	00 0e f8 f7 		TSTPAT	ipl,#0x8
  100120:	00 36 ff b3 		JZS	0x004c		; 100130 <_Check_Irq_DoCPM>
  100124:	00 0e 28 0e 		AND	ipl,#0xf1
  100128:	00 01 b8 9e 		MOVE	0x61,ipl	; 61 <RegInt0Sts>
  10012c:	00 33 ed 5b 		JUMP	0x12a4		; 104a90 <Handle_Irq_DoCDM>

00100130 <_Check_Irq_DoCPM>:
_Check_Irq_DoCPM():
  100130:	00 0e f8 fb 		TSTPAT	ipl,#0x4
  100134:	00 36 ff ae 		JZS	0x0051		; 100144 <_Check_Irq_Gasp>
  100138:	00 01 b8 9e 		MOVE	0x61,ipl	; 61 <RegInt0Sts>
  10013c:	00 0e 28 0e 		AND	ipl,#0xf1
  100140:	00 33 ed 5b 		JUMP	0x12a4		; 104a90 <Handle_Irq_DoCDM>

00100144 <_Check_Irq_Gasp>:
_Check_Irq_Gasp():
  100144:	00 0e f8 fd 		TSTPAT	ipl,#0x2
  100148:	00 36 ff a9 		JZS	0x0056		; 100158 <_Check_Irq_Port0>
  10014c:	00 0e 28 0e 		AND	ipl,#0xf1
  100150:	00 01 b8 9e 		MOVE	0x61,ipl	; 61 <RegInt0Sts>
  100154:	00 33 ed 57 		JUMP	0x12a8		; 104aa0 <Handle_Irq_Gasp>

00100158 <_Check_Irq_Port0>:
_Check_Irq_Port0():
  100158:	00 0e 2a 04 		AND	stat,#0xfb
  10015c:	00 0e ba df 		OR	stat,#0x20
  100160:	00 03 70 ff 		MOVE	-(i3,1),i0l
  100164:	00 03 71 ff 		MOVE	-(i3,1),i0h
  100168:	00 03 72 ff 		MOVE	-(i3,1),i1l
  10016c:	00 03 73 ff 		MOVE	-(i3,1),i1h
  100170:	00 03 74 ff 		MOVE	-(i3,1),i2l
  100174:	00 03 75 ff 		MOVE	-(i3,1),i2h
  100178:	00 03 7e ff 		MOVE	-(i3,1),r0
  10017c:	00 03 7d ff 		MOVE	-(i3,1),r1
  100180:	00 03 7c ff 		MOVE	-(i3,1),r2
  100184:	00 03 7b ff 		MOVE	-(i3,1),r3
  100188:	00 0e f8 7f 		TSTPAT	ipl,#0x80
  10018c:	00 36 ff 92 		JZS	0x006d		; 1001b4 <_Check_Irq_Tim1>
  100190:	00 03 78 ff 		MOVE	-(i3,1),ipl
  100194:	00 04 af 9b 		MOVE	a,0x64	; 64 <RegInt0Msk>
  100198:	00 0e 2f 80 		AND	a,#0x7f
  10019c:	00 01 bf 9b 		MOVE	0x64,a	; 64 <RegInt0Msk>
  1001a0:	00 3a ff fb 		CALLS	0x0004		; 100010 <_empty_IRQHandler>
  1001a4:	00 04 af 9b 		MOVE	a,0x64	; 64 <RegInt0Msk>
  1001a8:	00 0e bf 7f 		OR	a,#0x80
  1001ac:	00 01 bf 9b 		MOVE	0x64,a	; 64 <RegInt0Msk>
  1001b0:	00 16 a9 01 		MOVE	iph,(i3,1)+

001001b4 <_Check_Irq_Tim1>:
_Check_Irq_Tim1():
  1001b4:	00 0e f8 bf 		TSTPAT	ipl,#0x40
  1001b8:	00 36 ff 87 		JZS	0x0078		; 1001e0 <_Check_Irq_Presc11Hz>
  1001bc:	00 03 78 ff 		MOVE	-(i3,1),ipl
  1001c0:	00 04 af 9b 		MOVE	a,0x64	; 64 <RegInt0Msk>
  1001c4:	00 0e 2f 40 		AND	a,#0xbf
  1001c8:	00 01 bf 9b 		MOVE	0x64,a	; 64 <RegInt0Msk>
  1001cc:	00 3a ff fb 		CALLS	0x0004		; 100010 <_empty_IRQHandler>
  1001d0:	00 04 af 9b 		MOVE	a,0x64	; 64 <RegInt0Msk>
  1001d4:	00 0e bf bf 		OR	a,#0x40
  1001d8:	00 01 bf 9b 		MOVE	0x64,a	; 64 <RegInt0Msk>
  1001dc:	00 16 a8 01 		MOVE	ipl,(i3,1)+

001001e0 <_Check_Irq_Presc11Hz>:
_Check_Irq_Presc11Hz():
  1001e0:	00 0e f8 df 		TSTPAT	ipl,#0x20
  1001e4:	00 36 ff 7c 		JZS	0x0083		; 10020c <_Check_Irq_ADC>
  1001e8:	00 03 78 ff 		MOVE	-(i3,1),ipl
  1001ec:	00 04 af 9b 		MOVE	a,0x64	; 64 <RegInt0Msk>
  1001f0:	00 0e 2f 20 		AND	a,#0xdf
  1001f4:	00 01 bf 9b 		MOVE	0x64,a	; 64 <RegInt0Msk>
  1001f8:	00 3a ff fb 		CALLS	0x0004		; 100010 <_empty_IRQHandler>
  1001fc:	00 04 af 9b 		MOVE	a,0x64	; 64 <RegInt0Msk>
  100200:	00 0e bf df 		OR	a,#0x20
  100204:	00 01 bf 9b 		MOVE	0x64,a	; 64 <RegInt0Msk>
  100208:	00 16 a8 01 		MOVE	ipl,(i3,1)+

0010020c <_Check_Irq_ADC>:
_Check_Irq_ADC():
  10020c:	00 0e f8 ef 		TSTPAT	ipl,#0x10
  100210:	00 36 ff 71 		JZS	0x008e		; 100238 <_Check_Irq_PMMiss>
  100214:	00 03 78 ff 		MOVE	-(i3,1),ipl
  100218:	00 04 af 9b 		MOVE	a,0x64	; 64 <RegInt0Msk>
  10021c:	00 0e 2f 10 		AND	a,#0xef
  100220:	00 01 bf 9b 		MOVE	0x64,a	; 64 <RegInt0Msk>
  100224:	00 3a ff fb 		CALLS	0x0004		; 100010 <_empty_IRQHandler>
  100228:	00 04 af 9b 		MOVE	a,0x64	; 64 <RegInt0Msk>
  10022c:	00 0e bf ef 		OR	a,#0x10
  100230:	00 01 bf 9b 		MOVE	0x64,a	; 64 <RegInt0Msk>
  100234:	00 16 a8 01 		MOVE	ipl,(i3,1)+

00100238 <_Check_Irq_PMMiss>:
_Check_Irq_PMMiss():
  100238:	00 0e f8 fe 		TSTPAT	ipl,#0x1
  10023c:	00 36 ff 66 		JZS	0x0099		; 100264 <ret_int0>
  100240:	00 03 78 ff 		MOVE	-(i3,1),ipl
  100244:	00 04 af 9b 		MOVE	a,0x64	; 64 <RegInt0Msk>
  100248:	00 0e 2f 01 		AND	a,#0xfe
  10024c:	00 01 bf 9b 		MOVE	0x64,a	; 64 <RegInt0Msk>
  100250:	00 3a ff fb 		CALLS	0x0004		; 100010 <_empty_IRQHandler>
  100254:	00 04 af 9b 		MOVE	a,0x64	; 64 <RegInt0Msk>
  100258:	00 0e bf fe 		OR	a,#0x1
  10025c:	00 01 bf 9b 		MOVE	0x64,a	; 64 <RegInt0Msk>
  100260:	00 16 a8 01 		MOVE	ipl,(i3,1)+

00100264 <ret_int0>:
ret_int0():
  100264:	00 33 fe 90 		JUMP	0x016f		; 1005bc <ret_int>

00100268 <__int1_h>:
__int1_h():
  100268:	00 03 7f ff 		MOVE	-(i3,1),a
  10026c:	00 0b 7f ff 		SFLAG
  100270:	00 03 7f ff 		MOVE	-(i3,1),a
  100274:	00 03 78 ff 		MOVE	-(i3,1),ipl
  100278:	00 03 79 ff 		MOVE	-(i3,1),iph
  10027c:	00 04 a8 9d 		MOVE	ipl,0x62	; 62 <RegInt1Sts>
  100280:	00 0e 2a 08 		AND	stat,#0xf7
  100284:	00 0e ba df 		OR	stat,#0x20
  100288:	00 03 70 ff 		MOVE	-(i3,1),i0l
  10028c:	00 03 71 ff 		MOVE	-(i3,1),i0h
  100290:	00 03 72 ff 		MOVE	-(i3,1),i1l
  100294:	00 03 73 ff 		MOVE	-(i3,1),i1h
  100298:	00 03 74 ff 		MOVE	-(i3,1),i2l
  10029c:	00 03 75 ff 		MOVE	-(i3,1),i2h
  1002a0:	00 03 7e ff 		MOVE	-(i3,1),r0
  1002a4:	00 03 7d ff 		MOVE	-(i3,1),r1
  1002a8:	00 03 7c ff 		MOVE	-(i3,1),r2
  1002ac:	00 03 7b ff 		MOVE	-(i3,1),r3
  1002b0:	00 0e f8 ef 		TSTPAT	ipl,#0x10
  1002b4:	00 36 ff 48 		JZS	0x00b7		; 1002dc <_Check_Irq_Port2>
  1002b8:	00 03 78 ff 		MOVE	-(i3,1),ipl
  1002bc:	00 04 af 9a 		MOVE	a,0x65	; 65 <RegInt1Msk>
  1002c0:	00 0e 2f 10 		AND	a,#0xef
  1002c4:	00 01 bf 9a 		MOVE	0x65,a	; 65 <RegInt1Msk>
  1002c8:	00 3a ff fb 		CALLS	0x0004		; 100010 <_empty_IRQHandler>
  1002cc:	00 04 af 9a 		MOVE	a,0x65	; 65 <RegInt1Msk>
  1002d0:	00 0e bf ef 		OR	a,#0x10
  1002d4:	00 01 bf 9a 		MOVE	0x65,a	; 65 <RegInt1Msk>
  1002d8:	00 16 a8 01 		MOVE	ipl,(i3,1)+

001002dc <_Check_Irq_Port2>:
_Check_Irq_Port2():
  1002dc:	00 0e f8 7f 		TSTPAT	ipl,#0x80
  1002e0:	00 36 ff 3d 		JZS	0x00c2		; 100308 <_Check_Irq_Port1>
  1002e4:	00 03 78 ff 		MOVE	-(i3,1),ipl
  1002e8:	00 04 af 9a 		MOVE	a,0x65	; 65 <RegInt1Msk>
  1002ec:	00 0e 2f 80 		AND	a,#0x7f
  1002f0:	00 01 bf 9a 		MOVE	0x65,a	; 65 <RegInt1Msk>
  1002f4:	00 3a ff fb 		CALLS	0x0004		; 100010 <_empty_IRQHandler>
  1002f8:	00 04 af 9a 		MOVE	a,0x65	; 65 <RegInt1Msk>
  1002fc:	00 0e bf 7f 		OR	a,#0x80
  100300:	00 01 bf 9a 		MOVE	0x65,a	; 65 <RegInt1Msk>
  100304:	00 16 a8 01 		MOVE	ipl,(i3,1)+

00100308 <_Check_Irq_Port1>:
_Check_Irq_Port1():
  100308:	00 0e f8 bf 		TSTPAT	ipl,#0x40
  10030c:	00 36 ff 32 		JZS	0x00cd		; 100334 <_Check_Irq_Tim2>
  100310:	00 03 78 ff 		MOVE	-(i3,1),ipl
  100314:	00 04 af 9a 		MOVE	a,0x65	; 65 <RegInt1Msk>
  100318:	00 0e 2f 40 		AND	a,#0xbf
  10031c:	00 01 bf 9a 		MOVE	0x65,a	; 65 <RegInt1Msk>
  100320:	00 3a fd 92 		CALLS	0x026d		; 1009b4 <Handle_Irq_Port1>
  100324:	00 04 af 9a 		MOVE	a,0x65	; 65 <RegInt1Msk>
  100328:	00 0e bf bf 		OR	a,#0x40
  10032c:	00 01 bf 9a 		MOVE	0x65,a	; 65 <RegInt1Msk>
  100330:	00 16 a8 01 		MOVE	ipl,(i3,1)+

00100334 <_Check_Irq_Tim2>:
_Check_Irq_Tim2():
  100334:	00 0e f8 df 		TSTPAT	ipl,#0x20
  100338:	00 36 ff 27 		JZS	0x00d8		; 100360 <_Check_Irq_OpAmp>
  10033c:	00 03 78 ff 		MOVE	-(i3,1),ipl
  100340:	00 04 af 9a 		MOVE	a,0x65	; 65 <RegInt1Msk>
  100344:	00 0e 2f 20 		AND	a,#0xdf
  100348:	00 01 bf 9a 		MOVE	0x65,a	; 65 <RegInt1Msk>
  10034c:	00 3a ff fb 		CALLS	0x0004		; 100010 <_empty_IRQHandler>
  100350:	00 04 af 9a 		MOVE	a,0x65	; 65 <RegInt1Msk>
  100354:	00 0e bf df 		OR	a,#0x20
  100358:	00 01 bf 9a 		MOVE	0x65,a	; 65 <RegInt1Msk>
  10035c:	00 16 a8 01 		MOVE	ipl,(i3,1)+

00100360 <_Check_Irq_OpAmp>:
_Check_Irq_OpAmp():
  100360:	00 0e f8 f7 		TSTPAT	ipl,#0x8
  100364:	00 36 ff 1c 		JZS	0x00e3		; 10038c <_Check_Irq_Presc1B>
  100368:	00 03 78 ff 		MOVE	-(i3,1),ipl
  10036c:	00 04 af 9a 		MOVE	a,0x65	; 65 <RegInt1Msk>
  100370:	00 0e 2f 08 		AND	a,#0xf7
  100374:	00 01 bf 9a 		MOVE	0x65,a	; 65 <RegInt1Msk>
  100378:	00 3a ff fb 		CALLS	0x0004		; 100010 <_empty_IRQHandler>
  10037c:	00 04 af 9a 		MOVE	a,0x65	; 65 <RegInt1Msk>
  100380:	00 0e bf f7 		OR	a,#0x8
  100384:	00 01 bf 9a 		MOVE	0x65,a	; 65 <RegInt1Msk>
  100388:	00 16 a8 01 		MOVE	ipl,(i3,1)+

0010038c <_Check_Irq_Presc1B>:
_Check_Irq_Presc1B():
  10038c:	00 0e f8 fb 		TSTPAT	ipl,#0x4
  100390:	00 36 ff 11 		JZS	0x00ee		; 1003b8 <_Check_Irq_SPI_STOP>
  100394:	00 03 78 ff 		MOVE	-(i3,1),ipl
  100398:	00 04 af 9a 		MOVE	a,0x65	; 65 <RegInt1Msk>
  10039c:	00 0e 2f 04 		AND	a,#0xfb
  1003a0:	00 01 bf 9a 		MOVE	0x65,a	; 65 <RegInt1Msk>
  1003a4:	00 3a ff fb 		CALLS	0x0004		; 100010 <_empty_IRQHandler>
  1003a8:	00 04 af 9a 		MOVE	a,0x65	; 65 <RegInt1Msk>
  1003ac:	00 0e bf fb 		OR	a,#0x4
  1003b0:	00 01 bf 9a 		MOVE	0x65,a	; 65 <RegInt1Msk>
  1003b4:	00 16 a8 01 		MOVE	ipl,(i3,1)+

001003b8 <_Check_Irq_SPI_STOP>:
_Check_Irq_SPI_STOP():
  1003b8:	00 0e f8 fd 		TSTPAT	ipl,#0x2
  1003bc:	00 36 ff 06 		JZS	0x00f9		; 1003e4 <_Check_Irq_SPI_START>
  1003c0:	00 03 78 ff 		MOVE	-(i3,1),ipl
  1003c4:	00 04 af 9a 		MOVE	a,0x65	; 65 <RegInt1Msk>
  1003c8:	00 0e 2f 02 		AND	a,#0xfd
  1003cc:	00 01 bf 9a 		MOVE	0x65,a	; 65 <RegInt1Msk>
  1003d0:	00 3a ff fb 		CALLS	0x0004		; 100010 <_empty_IRQHandler>
  1003d4:	00 04 af 9a 		MOVE	a,0x65	; 65 <RegInt1Msk>
  1003d8:	00 0e bf fd 		OR	a,#0x2
  1003dc:	00 01 bf 9a 		MOVE	0x65,a	; 65 <RegInt1Msk>
  1003e0:	00 16 a8 01 		MOVE	ipl,(i3,1)+

001003e4 <_Check_Irq_SPI_START>:
_Check_Irq_SPI_START():
  1003e4:	00 0e f8 fe 		TSTPAT	ipl,#0x1
  1003e8:	00 36 fe fb 		JZS	0x0104		; 100410 <ret_int1>
  1003ec:	00 03 78 ff 		MOVE	-(i3,1),ipl
  1003f0:	00 04 af 9a 		MOVE	a,0x65	; 65 <RegInt1Msk>
  1003f4:	00 0e 2f 01 		AND	a,#0xfe
  1003f8:	00 01 bf 9a 		MOVE	0x65,a	; 65 <RegInt1Msk>
  1003fc:	00 3a ff fb 		CALLS	0x0004		; 100010 <_empty_IRQHandler>
  100400:	00 04 af 9a 		MOVE	a,0x65	; 65 <RegInt1Msk>
  100404:	00 0e bf fe 		OR	a,#0x1
  100408:	00 01 bf 9a 		MOVE	0x65,a	; 65 <RegInt1Msk>
  10040c:	00 16 a8 01 		MOVE	ipl,(i3,1)+

00100410 <ret_int1>:
ret_int1():
  100410:	00 33 fe 90 		JUMP	0x016f		; 1005bc <ret_int>

00100414 <__int2_h>:
__int2_h():
  100414:	00 03 7f ff 		MOVE	-(i3,1),a
  100418:	00 0b 7f ff 		SFLAG
  10041c:	00 03 7f ff 		MOVE	-(i3,1),a
  100420:	00 03 78 ff 		MOVE	-(i3,1),ipl
  100424:	00 03 79 ff 		MOVE	-(i3,1),iph
  100428:	00 04 a8 9c 		MOVE	ipl,0x63	; 63 <RegInt2Sts>
  10042c:	00 0e 2a 10 		AND	stat,#0xef
  100430:	00 0e ba df 		OR	stat,#0x20
  100434:	00 03 70 ff 		MOVE	-(i3,1),i0l
  100438:	00 03 71 ff 		MOVE	-(i3,1),i0h
  10043c:	00 03 72 ff 		MOVE	-(i3,1),i1l
  100440:	00 03 73 ff 		MOVE	-(i3,1),i1h
  100444:	00 03 74 ff 		MOVE	-(i3,1),i2l
  100448:	00 03 75 ff 		MOVE	-(i3,1),i2h
  10044c:	00 03 7e ff 		MOVE	-(i3,1),r0
  100450:	00 03 7d ff 		MOVE	-(i3,1),r1
  100454:	00 03 7c ff 		MOVE	-(i3,1),r2
  100458:	00 03 7b ff 		MOVE	-(i3,1),r3
  10045c:	00 0e f8 fe 		TSTPAT	ipl,#0x1
  100460:	00 36 fe dd 		JZS	0x0122		; 100488 <_Check_Irq_Port_6>
  100464:	00 03 78 ff 		MOVE	-(i3,1),ipl
  100468:	00 04 af 99 		MOVE	a,0x66	; 66 <RegInt2Msk>
  10046c:	00 0e 2f 01 		AND	a,#0xfe
  100470:	00 01 bf 99 		MOVE	0x66,a	; 66 <RegInt2Msk>
  100474:	00 3a ff fb 		CALLS	0x0004		; 100010 <_empty_IRQHandler>
  100478:	00 04 af 99 		MOVE	a,0x66	; 66 <RegInt2Msk>
  10047c:	00 0e bf fe 		OR	a,#0x1
  100480:	00 01 bf 99 		MOVE	0x66,a	; 66 <RegInt2Msk>
  100484:	00 16 a8 01 		MOVE	ipl,(i3,1)+

00100488 <_Check_Irq_Port_6>:
_Check_Irq_Port_6():
  100488:	00 0e f8 ef 		TSTPAT	ipl,#0x10
  10048c:	00 36 fe d2 		JZS	0x012d		; 1004b4 <_Check_Irq_VLD>
  100490:	00 03 78 ff 		MOVE	-(i3,1),ipl
  100494:	00 04 af 99 		MOVE	a,0x66	; 66 <RegInt2Msk>
  100498:	00 0e 2f 10 		AND	a,#0xef
  10049c:	00 01 bf 99 		MOVE	0x66,a	; 66 <RegInt2Msk>
  1004a0:	00 3a ff fb 		CALLS	0x0004		; 100010 <_empty_IRQHandler>
  1004a4:	00 04 af 99 		MOVE	a,0x66	; 66 <RegInt2Msk>
  1004a8:	00 0e bf ef 		OR	a,#0x10
  1004ac:	00 01 bf 99 		MOVE	0x66,a	; 66 <RegInt2Msk>
  1004b0:	00 16 a8 01 		MOVE	ipl,(i3,1)+

001004b4 <_Check_Irq_VLD>:
_Check_Irq_VLD():
  1004b4:	00 0e f8 7f 		TSTPAT	ipl,#0x80
  1004b8:	00 36 fe c7 		JZS	0x0138		; 1004e0 <_Check_Irq_SlpCnt>
  1004bc:	00 03 78 ff 		MOVE	-(i3,1),ipl
  1004c0:	00 04 af 99 		MOVE	a,0x66	; 66 <RegInt2Msk>
  1004c4:	00 0e 2f 80 		AND	a,#0x7f
  1004c8:	00 01 bf 99 		MOVE	0x66,a	; 66 <RegInt2Msk>
  1004cc:	00 3a ff fb 		CALLS	0x0004		; 100010 <_empty_IRQHandler>
  1004d0:	00 04 af 99 		MOVE	a,0x66	; 66 <RegInt2Msk>
  1004d4:	00 0e bf 7f 		OR	a,#0x80
  1004d8:	00 01 bf 99 		MOVE	0x66,a	; 66 <RegInt2Msk>
  1004dc:	00 16 a8 01 		MOVE	ipl,(i3,1)+

001004e0 <_Check_Irq_SlpCnt>:
_Check_Irq_SlpCnt():
  1004e0:	00 0e f8 bf 		TSTPAT	ipl,#0x40
  1004e4:	00 36 fe bc 		JZS	0x0143		; 10050c <_Check_Irq_Port7>
  1004e8:	00 03 78 ff 		MOVE	-(i3,1),ipl
  1004ec:	00 04 af 99 		MOVE	a,0x66	; 66 <RegInt2Msk>
  1004f0:	00 0e 2f 40 		AND	a,#0xbf
  1004f4:	00 01 bf 99 		MOVE	0x66,a	; 66 <RegInt2Msk>
  1004f8:	00 3a ff fb 		CALLS	0x0004		; 100010 <_empty_IRQHandler>
  1004fc:	00 04 af 99 		MOVE	a,0x66	; 66 <RegInt2Msk>
  100500:	00 0e bf bf 		OR	a,#0x40
  100504:	00 01 bf 99 		MOVE	0x66,a	; 66 <RegInt2Msk>
  100508:	00 16 a8 01 		MOVE	ipl,(i3,1)+

0010050c <_Check_Irq_Port7>:
_Check_Irq_Port7():
  10050c:	00 0e f8 df 		TSTPAT	ipl,#0x20
  100510:	00 36 fe b1 		JZS	0x014e		; 100538 <_Check_Irq_Port5>
  100514:	00 03 78 ff 		MOVE	-(i3,1),ipl
  100518:	00 04 af 99 		MOVE	a,0x66	; 66 <RegInt2Msk>
  10051c:	00 0e 2f 20 		AND	a,#0xdf
  100520:	00 01 bf 99 		MOVE	0x66,a	; 66 <RegInt2Msk>
  100524:	00 3a ff fb 		CALLS	0x0004		; 100010 <_empty_IRQHandler>
  100528:	00 04 af 99 		MOVE	a,0x66	; 66 <RegInt2Msk>
  10052c:	00 0e bf df 		OR	a,#0x20
  100530:	00 01 bf 99 		MOVE	0x66,a	; 66 <RegInt2Msk>
  100534:	00 16 a8 01 		MOVE	ipl,(i3,1)+

00100538 <_Check_Irq_Port5>:
_Check_Irq_Port5():
  100538:	00 0e f8 f7 		TSTPAT	ipl,#0x8
  10053c:	00 36 fe a6 		JZS	0x0159		; 100564 <_Check_Irq_Port4>
  100540:	00 03 78 ff 		MOVE	-(i3,1),ipl
  100544:	00 04 af 99 		MOVE	a,0x66	; 66 <RegInt2Msk>
  100548:	00 0e 2f 08 		AND	a,#0xf7
  10054c:	00 01 bf 99 		MOVE	0x66,a	; 66 <RegInt2Msk>
  100550:	00 3a ff fb 		CALLS	0x0004		; 100010 <_empty_IRQHandler>
  100554:	00 04 af 99 		MOVE	a,0x66	; 66 <RegInt2Msk>
  100558:	00 0e bf f7 		OR	a,#0x8
  10055c:	00 01 bf 99 		MOVE	0x66,a	; 66 <RegInt2Msk>
  100560:	00 16 a8 01 		MOVE	ipl,(i3,1)+

00100564 <_Check_Irq_Port4>:
_Check_Irq_Port4():
  100564:	00 0e f8 fb 		TSTPAT	ipl,#0x4
  100568:	00 36 fe 9b 		JZS	0x0164		; 100590 <_Check_Irq_Port3>
  10056c:	00 03 78 ff 		MOVE	-(i3,1),ipl
  100570:	00 04 af 99 		MOVE	a,0x66	; 66 <RegInt2Msk>
  100574:	00 0e 2f 04 		AND	a,#0xfb
  100578:	00 01 bf 99 		MOVE	0x66,a	; 66 <RegInt2Msk>
  10057c:	00 3a ff fb 		CALLS	0x0004		; 100010 <_empty_IRQHandler>
  100580:	00 04 af 99 		MOVE	a,0x66	; 66 <RegInt2Msk>
  100584:	00 0e bf fb 		OR	a,#0x4
  100588:	00 01 bf 99 		MOVE	0x66,a	; 66 <RegInt2Msk>
  10058c:	00 16 a9 01 		MOVE	iph,(i3,1)+

00100590 <_Check_Irq_Port3>:
_Check_Irq_Port3():
  100590:	00 0e f8 fd 		TSTPAT	ipl,#0x2
  100594:	00 36 fe 90 		JZS	0x016f		; 1005bc <ret_int>
  100598:	00 03 78 ff 		MOVE	-(i3,1),ipl
  10059c:	00 04 af 99 		MOVE	a,0x66	; 66 <RegInt2Msk>
  1005a0:	00 0e 2f 02 		AND	a,#0xfd
  1005a4:	00 01 bf 99 		MOVE	0x66,a	; 66 <RegInt2Msk>
  1005a8:	00 3a f7 e6 		CALLS	0x0819		; 102064 <Handle_Irq_Port3>
  1005ac:	00 04 af 99 		MOVE	a,0x66	; 66 <RegInt2Msk>
  1005b0:	00 0e bf fd 		OR	a,#0x2
  1005b4:	00 01 bf 99 		MOVE	0x66,a	; 66 <RegInt2Msk>
  1005b8:	00 16 a8 01 		MOVE	ipl,(i3,1)+

001005bc <ret_int>:
ret_int2():
  1005bc:	00 16 ab 01 		MOVE	r3,(i3,1)+
  1005c0:	00 16 ac 01 		MOVE	r2,(i3,1)+
  1005c4:	00 16 ad 01 		MOVE	r1,(i3,1)+
  1005c8:	00 16 ae 01 		MOVE	r0,(i3,1)+
  1005cc:	00 16 a5 01 		MOVE	i2h,(i3,1)+
  1005d0:	00 16 a4 01 		MOVE	i2l,(i3,1)+
  1005d4:	00 16 a3 01 		MOVE	i1h,(i3,1)+
  1005d8:	00 16 a2 01 		MOVE	i1l,(i3,1)+
  1005dc:	00 16 a1 01 		MOVE	i0h,(i3,1)+
  1005e0:	00 16 a0 01 		MOVE	i0l,(i3,1)+
  1005e4:	00 16 a9 01 		MOVE	iph,(i3,1)+
  1005e8:	00 16 a8 01 		MOVE	ipl,(i3,1)+
  1005ec:	00 17 af 01 		SHL	a,(i3,1)+
  1005f0:	00 16 af 01 		MOVE	a,(i3,1)+
  1005f4:	00 3f 1f ff 		RETI

001005f8 <GetAltBcnPacketRef>:
GetAltBcnPacketRef():
  1005f8:	00 0e ab fe 		MOVE	r3,#0x1
  1005fc:	00 0e ac c5 		MOVE	r2,#0x3a
  100600:	00 23 ff ff 		JUMP	ip

00100604 <UpdateDynamicAltBcnData>:
UpdateDynamicAltBcnData():
  100604:	00 03 75 ff 		MOVE	-(i3,1),i2h
  100608:	00 03 78 ff 		MOVE	-(i3,1),ipl
  10060c:	00 03 79 ff 		MOVE	-(i3,1),iph
  100610:	00 0c af bd 		MOVE	r1,r3
  100614:	00 0c af c5 		MOVE	i2h,r2
  100618:	00 0e ab ff 		MOVE	r3,#0x0
  10061c:	00 0c af dc 		MOVE	r2,r1
  100620:	00 3a ee 4b 		CALLS	0x11b4		; 1046d0 <GetRssi>
  100624:	00 0e a1 fe 		MOVE	i0h,#0x1
  100628:	00 0e a0 c5 		MOVE	i0l,#0x3a
  10062c:	00 02 cc 21 		MOVE	(i0,33),r2
  100630:	00 02 c5 22 		MOVE	(i0,34),i2h
  100634:	00 16 a9 01 		MOVE	iph,(i3,1)+
  100638:	00 16 a8 01 		MOVE	ipl,(i3,1)+
  10063c:	00 16 a5 01 		MOVE	i2h,(i3,1)+
  100640:	00 23 ff ff 		JUMP	ip

00100644 <SetStaticAltBcnData>:
SetStaticAltBcnData():
  100644:	00 03 74 ff 		MOVE	-(i3,1),i2l
  100648:	00 03 75 ff 		MOVE	-(i3,1),i2h
  10064c:	00 03 78 ff 		MOVE	-(i3,1),ipl
  100650:	00 03 79 ff 		MOVE	-(i3,1),iph
  100654:	00 16 af ff 		MOVE	a,-(i3,1)
  100658:	00 0e a5 fe 		MOVE	i2h,#0x1
  10065c:	00 0e a4 b8 		MOVE	i2l,#0x47
  100660:	00 0e af ef 		MOVE	a,#0x10
  100664:	00 02 ff 00 		MOVE	(i3,0),a
  100668:	00 0c af 5b 		MOVE	r3,i2h
  10066c:	00 0c af 4c 		MOVE	r2,i2l
  100670:	00 0e ad 90 		MOVE	r1,#0x6f
  100674:	00 0e ae b9 		MOVE	r0,#0x46
  100678:	00 3a f1 00 		CALLS	0x0eff		; 103bfc <byteCopy>
  10067c:	00 0c af 4c 		MOVE	r2,i2l
  100680:	00 0e cc ef 		ADD	r2,#0x10
  100684:	00 0d 5f 5b 		INCC	r3,i2h
  100688:	00 0e af fd 		MOVE	a,#0x2
  10068c:	00 02 ff 00 		MOVE	(i3,0),a
  100690:	00 0e ad 90 		MOVE	r1,#0x6f
  100694:	00 0e ae a9 		MOVE	r0,#0x56
  100698:	00 3a f1 00 		CALLS	0x0eff		; 103bfc <byteCopy>
  10069c:	00 0c af 4c 		MOVE	r2,i2l
  1006a0:	00 0e cc ed 		ADD	r2,#0x12
  1006a4:	00 0d 5f 5b 		INCC	r3,i2h
  1006a8:	00 0e af fd 		MOVE	a,#0x2
  1006ac:	00 02 ff 00 		MOVE	(i3,0),a
  1006b0:	00 0e ad 90 		MOVE	r1,#0x6f
  1006b4:	00 0e ae a7 		MOVE	r0,#0x58
  1006b8:	00 3a f1 00 		CALLS	0x0eff		; 103bfc <byteCopy>
  1006bc:	00 16 af 01 		MOVE	a,(i3,1)+
  1006c0:	00 16 a9 01 		MOVE	iph,(i3,1)+
  1006c4:	00 16 a8 01 		MOVE	ipl,(i3,1)+
  1006c8:	00 16 a5 01 		MOVE	i2h,(i3,1)+
  1006cc:	00 16 a4 01 		MOVE	i2l,(i3,1)+
  1006d0:	00 23 ff ff 		JUMP	ip

001006d4 <BMA222E_MeasureZ>:
BMA222E_MeasureZ():
  1006d4:	00 03 78 ff 		MOVE	-(i3,1),ipl
  1006d8:	00 03 79 ff 		MOVE	-(i3,1),iph
  1006dc:	00 0e ab e7 		MOVE	r3,#0x18
  1006e0:	00 0e ac f8 		MOVE	r2,#0x7
  1006e4:	00 3a f8 ce 		CALLS	0x0731		; 101cc4 <fI2cGetData>
  1006e8:	00 0c af cb 		MOVE	r3,r2
  1006ec:	00 0e eb f7 		MUL	r3,#0x8
  1006f0:	00 0c af fc 		MOVE	r2,a
  1006f4:	00 16 a9 01 		MOVE	iph,(i3,1)+
  1006f8:	00 16 a8 01 		MOVE	ipl,(i3,1)+
  1006fc:	00 23 ff ff 		JUMP	ip

00100700 <BMA222E_MeasureY>:
BMA222E_MeasureY():
  100700:	00 03 78 ff 		MOVE	-(i3,1),ipl
  100704:	00 03 79 ff 		MOVE	-(i3,1),iph
  100708:	00 0e ab e7 		MOVE	r3,#0x18
  10070c:	00 0e ac fa 		MOVE	r2,#0x5
  100710:	00 3a f8 ce 		CALLS	0x0731		; 101cc4 <fI2cGetData>
  100714:	00 0c af cb 		MOVE	r3,r2
  100718:	00 0e eb f7 		MUL	r3,#0x8
  10071c:	00 0c af fc 		MOVE	r2,a
  100720:	00 16 a9 01 		MOVE	iph,(i3,1)+
  100724:	00 16 a8 01 		MOVE	ipl,(i3,1)+
  100728:	00 23 ff ff 		JUMP	ip

0010072c <BMA222E_MeasureX>:
BMA222E_MeasureX():
  10072c:	00 03 78 ff 		MOVE	-(i3,1),ipl
  100730:	00 03 79 ff 		MOVE	-(i3,1),iph
  100734:	00 0e ab e7 		MOVE	r3,#0x18
  100738:	00 0e ac fc 		MOVE	r2,#0x3
  10073c:	00 3a f8 ce 		CALLS	0x0731		; 101cc4 <fI2cGetData>
  100740:	00 0c af cb 		MOVE	r3,r2
  100744:	00 0e eb f7 		MUL	r3,#0x8
  100748:	00 0c af fc 		MOVE	r2,a
  10074c:	00 16 a9 01 		MOVE	iph,(i3,1)+
  100750:	00 16 a8 01 		MOVE	ipl,(i3,1)+
  100754:	00 23 ff ff 		JUMP	ip

00100758 <BMA222E_Suspend>:
BMA222E_Suspend():
  100758:	00 03 78 ff 		MOVE	-(i3,1),ipl
  10075c:	00 03 79 ff 		MOVE	-(i3,1),iph
  100760:	00 0e ab 7f 		MOVE	r3,#0x80
  100764:	00 0e ac e7 		MOVE	r2,#0x18
  100768:	00 0e ad ee 		MOVE	r1,#0x11
  10076c:	00 3a f9 cb 		CALLS	0x0634		; 1018d0 <fI2cSendData>
  100770:	00 16 a9 01 		MOVE	iph,(i3,1)+
  100774:	00 16 a8 01 		MOVE	ipl,(i3,1)+
  100778:	00 23 ff ff 		JUMP	ip

0010077c <BMA222E_Wake>:
BMA222E_Wake():
  10077c:	00 03 78 ff 		MOVE	-(i3,1),ipl
  100780:	00 03 79 ff 		MOVE	-(i3,1),iph
  100784:	00 0e ab f3 		MOVE	r3,#0xc
  100788:	00 0e ac e7 		MOVE	r2,#0x18
  10078c:	00 0e ad f0 		MOVE	r1,#0xf
  100790:	00 3a f9 cb 		CALLS	0x0634		; 1018d0 <fI2cSendData>
  100794:	00 16 a9 01 		MOVE	iph,(i3,1)+
  100798:	00 16 a8 01 		MOVE	ipl,(i3,1)+
  10079c:	00 23 ff ff 		JUMP	ip

001007a0 <BMA222E_DisableIntEngine>:
BMA222E_DisableIntEngine():
  1007a0:	00 03 78 ff 		MOVE	-(i3,1),ipl
  1007a4:	00 03 79 ff 		MOVE	-(i3,1),iph
  1007a8:	00 0e ab ff 		MOVE	r3,#0x0
  1007ac:	00 0e ac e7 		MOVE	r2,#0x18
  1007b0:	00 0e ad e9 		MOVE	r1,#0x16
  1007b4:	00 3a f9 cb 		CALLS	0x0634		; 1018d0 <fI2cSendData>
  1007b8:	00 0e ab ff 		MOVE	r3,#0x0
  1007bc:	00 0e ac e7 		MOVE	r2,#0x18
  1007c0:	00 0e ad e8 		MOVE	r1,#0x17
  1007c4:	00 3a f9 cb 		CALLS	0x0634		; 1018d0 <fI2cSendData>
  1007c8:	00 0e ab ff 		MOVE	r3,#0x0
  1007cc:	00 0e ac e7 		MOVE	r2,#0x18
  1007d0:	00 0c af cd 		MOVE	r1,r2
  1007d4:	00 3a f9 cb 		CALLS	0x0634		; 1018d0 <fI2cSendData>
  1007d8:	00 16 a9 01 		MOVE	iph,(i3,1)+
  1007dc:	00 16 a8 01 		MOVE	ipl,(i3,1)+
  1007e0:	00 23 ff ff 		JUMP	ip

001007e4 <BMA222E_EnterFallDetectionMode>:
BMA222E_EnterFallDetectionMode():
  1007e4:	00 03 78 ff 		MOVE	-(i3,1),ipl
  1007e8:	00 03 79 ff 		MOVE	-(i3,1),iph
  1007ec:	00 0e ab fe 		MOVE	r3,#0x1
  1007f0:	00 0e ac e7 		MOVE	r2,#0x18
  1007f4:	00 0e ad e6 		MOVE	r1,#0x19
  1007f8:	00 3a f9 cb 		CALLS	0x0634		; 1018d0 <fI2cSendData>
  1007fc:	00 0e ab a5 		MOVE	r3,#0x5a
  100800:	00 0e ac e7 		MOVE	r2,#0x18
  100804:	00 0e ad ee 		MOVE	r1,#0x11
  100808:	00 3a f9 cb 		CALLS	0x0634		; 1018d0 <fI2cSendData>
  10080c:	00 0e ab 7b 		MOVE	r3,#0x84
  100810:	00 0e ac e7 		MOVE	r2,#0x18
  100814:	00 0e ad de 		MOVE	r1,#0x21
  100818:	00 3a f9 cb 		CALLS	0x0634		; 1018d0 <fI2cSendData>
  10081c:	00 0e ab f8 		MOVE	r3,#0x7
  100820:	00 0e ac e7 		MOVE	r2,#0x18
  100824:	00 0e ad db 		MOVE	r1,#0x24
  100828:	00 3a f9 cb 		CALLS	0x0634		; 1018d0 <fI2cSendData>
  10082c:	00 0e ab df 		MOVE	r3,#0x20
  100830:	00 0e ac e7 		MOVE	r2,#0x18
  100834:	00 0e ad dc 		MOVE	r1,#0x23
  100838:	00 3a f9 cb 		CALLS	0x0634		; 1018d0 <fI2cSendData>
  10083c:	00 0e ab fb 		MOVE	r3,#0x4
  100840:	00 0e ac e7 		MOVE	r2,#0x18
  100844:	00 0e ad dd 		MOVE	r1,#0x22
  100848:	00 3a f9 cb 		CALLS	0x0634		; 1018d0 <fI2cSendData>
  10084c:	00 0e ab f7 		MOVE	r3,#0x8
  100850:	00 0e ac e7 		MOVE	r2,#0x18
  100854:	00 0e ad e8 		MOVE	r1,#0x17
  100858:	00 3a f9 cb 		CALLS	0x0634		; 1018d0 <fI2cSendData>
  10085c:	00 16 a9 01 		MOVE	iph,(i3,1)+
  100860:	00 16 a8 01 		MOVE	ipl,(i3,1)+
  100864:	00 23 ff ff 		JUMP	ip

00100868 <BMA222E_EnterTapDetectionMode>:
BMA222E_EnterTapDetectionMode():
  100868:	00 03 78 ff 		MOVE	-(i3,1),ipl
  10086c:	00 03 79 ff 		MOVE	-(i3,1),iph
  100870:	00 0e ab df 		MOVE	r3,#0x20
  100874:	00 0e ac e7 		MOVE	r2,#0x18
  100878:	00 0e ad e6 		MOVE	r1,#0x19
  10087c:	00 3a f9 cb 		CALLS	0x0634		; 1018d0 <fI2cSendData>
  100880:	00 0e ab af 		MOVE	r3,#0x50
  100884:	00 0e ac e7 		MOVE	r2,#0x18
  100888:	00 0e ad ee 		MOVE	r1,#0x11
  10088c:	00 3a f9 cb 		CALLS	0x0634		; 1018d0 <fI2cSendData>
  100890:	00 0e ab 74 		MOVE	r3,#0x8b
  100894:	00 0e ac e7 		MOVE	r2,#0x18
  100898:	00 0e ad de 		MOVE	r1,#0x21
  10089c:	00 3a f9 cb 		CALLS	0x0634		; 1018d0 <fI2cSendData>
  1008a0:	00 0e ab 7f 		MOVE	r3,#0x80
  1008a4:	00 0e ac e7 		MOVE	r2,#0x18
  1008a8:	00 0e ad d5 		MOVE	r1,#0x2a
  1008ac:	00 3a f9 cb 		CALLS	0x0634		; 1018d0 <fI2cSendData>
  1008b0:	00 0e ab fb 		MOVE	r3,#0x4
  1008b4:	00 0e ac e7 		MOVE	r2,#0x18
  1008b8:	00 0e ad d4 		MOVE	r1,#0x2b
  1008bc:	00 3a f9 cb 		CALLS	0x0634		; 1018d0 <fI2cSendData>
  1008c0:	00 0e ab df 		MOVE	r3,#0x20
  1008c4:	00 0e ac e7 		MOVE	r2,#0x18
  1008c8:	00 0e ad e9 		MOVE	r1,#0x16
  1008cc:	00 3a f9 cb 		CALLS	0x0634		; 1018d0 <fI2cSendData>
  1008d0:	00 16 a9 01 		MOVE	iph,(i3,1)+
  1008d4:	00 16 a8 01 		MOVE	ipl,(i3,1)+
  1008d8:	00 23 ff ff 		JUMP	ip

001008dc <BMA222E_EnterMovementDetectionMode>:
BMA222E_EnterMovementDetectionMode():
  1008dc:	00 03 78 ff 		MOVE	-(i3,1),ipl
  1008e0:	00 03 79 ff 		MOVE	-(i3,1),iph
  1008e4:	00 0e ab fb 		MOVE	r3,#0x4
  1008e8:	00 0e ac e7 		MOVE	r2,#0x18
  1008ec:	00 0e ad e6 		MOVE	r1,#0x19
  1008f0:	00 3a f9 cb 		CALLS	0x0634		; 1018d0 <fI2cSendData>
  1008f4:	00 0e ab 7b 		MOVE	r3,#0x84
  1008f8:	00 0e ac e7 		MOVE	r2,#0x18
  1008fc:	00 0e ad de 		MOVE	r1,#0x21
  100900:	00 3a f9 cb 		CALLS	0x0634		; 1018d0 <fI2cSendData>
  100904:	00 0e ab a7 		MOVE	r3,#0x58
  100908:	00 0e ac e7 		MOVE	r2,#0x18
  10090c:	00 0e ad ee 		MOVE	r1,#0x11
  100910:	00 3a f9 cb 		CALLS	0x0634		; 1018d0 <fI2cSendData>
  100914:	00 0e ab fd 		MOVE	r3,#0x2
  100918:	00 0e ac e7 		MOVE	r2,#0x18
  10091c:	00 0e ad d7 		MOVE	r1,#0x28
  100920:	00 3a f9 cb 		CALLS	0x0634		; 1018d0 <fI2cSendData>
  100924:	00 0e ab fe 		MOVE	r3,#0x1
  100928:	00 0e ac e7 		MOVE	r2,#0x18
  10092c:	00 0e ad d8 		MOVE	r1,#0x27
  100930:	00 3a f9 cb 		CALLS	0x0634		; 1018d0 <fI2cSendData>
  100934:	00 0e ab f8 		MOVE	r3,#0x7
  100938:	00 0e ac e7 		MOVE	r2,#0x18
  10093c:	00 0e ad e9 		MOVE	r1,#0x16
  100940:	00 3a f9 cb 		CALLS	0x0634		; 1018d0 <fI2cSendData>
  100944:	00 16 a9 01 		MOVE	iph,(i3,1)+
  100948:	00 16 a8 01 		MOVE	ipl,(i3,1)+
  10094c:	00 23 ff ff 		JUMP	ip

00100950 <BMA222E_PowerOnInit>:
BMA222E_PowerOnInit():
  100950:	00 03 78 ff 		MOVE	-(i3,1),ipl
  100954:	00 03 79 ff 		MOVE	-(i3,1),iph
  100958:	00 04 ab 9a 		MOVE	r3,0x65	; 65 <RegInt1Msk>
  10095c:	00 0e 2b 40 		AND	r3,#0xbf
  100960:	00 01 bb 9a 		MOVE	0x65,r3	; 65 <RegInt1Msk>
  100964:	00 0e ab e7 		MOVE	r3,#0x18
  100968:	00 0e ac ff 		MOVE	r2,#0x0
  10096c:	00 3a f8 ce 		CALLS	0x0731		; 101cc4 <fI2cGetData>
  100970:	00 0e 1c 07 		CMP	r2,#0xf8
  100974:	00 36 fd 9f 		JEQ	0x0260		; 100980 <BMA222E_PowerOnInit+0x30>
  100978:	00 0e ac ff 		MOVE	r2,#0x0
  10097c:	00 33 fd 95 		JUMP	0x026a		; 1009a8 <BMA222E_PowerOnInit+0x58>
  100980:	00 0e ab fe 		MOVE	r3,#0x1
  100984:	00 0e ac e7 		MOVE	r2,#0x18
  100988:	00 0e ad df 		MOVE	r1,#0x20
  10098c:	00 3a f9 cb 		CALLS	0x0634		; 1018d0 <fI2cSendData>
  100990:	00 0e ab af 		MOVE	r3,#0x50
  100994:	00 0e ac e7 		MOVE	r2,#0x18
  100998:	00 0e ad ee 		MOVE	r1,#0x11
  10099c:	00 3a f9 cb 		CALLS	0x0634		; 1018d0 <fI2cSendData>
  1009a0:	00 3a fe 20 		CALLS	0x01df		; 10077c <BMA222E_Wake>
  1009a4:	00 0e ac fe 		MOVE	r2,#0x1
  1009a8:	00 16 a9 01 		MOVE	iph,(i3,1)+
  1009ac:	00 16 a8 01 		MOVE	ipl,(i3,1)+
  1009b0:	00 23 ff ff 		JUMP	ip

001009b4 <Handle_Irq_Port1>:
Handle_Irq_Port1():
  1009b4:	00 04 ac 76 		MOVE	r2,0x89	; 89 <embc02_EventCount+0x1>
  1009b8:	00 04 ab 77 		MOVE	r3,0x88	; 88 <embc02_EventCount>
  1009bc:	00 0d 1f cc 		INC	r2,r2
  1009c0:	00 0d 5f bb 		INCC	r3,r3
  1009c4:	00 01 bb 77 		MOVE	0x88,r3	; 88 <embc02_EventCount>
  1009c8:	00 01 bc 76 		MOVE	0x89,r2	; 89 <embc02_EventCount+0x1>
  1009cc:	00 0e a1 91 		MOVE	i0h,#0x6e
  1009d0:	00 0e a0 c9 		MOVE	i0l,#0x36
  1009d4:	00 18 af 00 		MOVE	a,(i0,0)
  1009d8:	00 01 bf 5f 		MOVE	0xa0,a	; a0 <panicMode>
  1009dc:	00 23 ff ff 		JUMP	ip

001009e0 <EMBC02_GetEventCount>:
EMBC02_GetEventCount():
  1009e0:	00 04 ab 9a 		MOVE	r3,0x65	; 65 <RegInt1Msk>
  1009e4:	00 0e 2b 40 		AND	r3,#0xbf
  1009e8:	00 01 bb 9a 		MOVE	0x65,r3	; 65 <RegInt1Msk>
  1009ec:	00 04 ac 76 		MOVE	r2,0x89	; 89 <embc02_EventCount+0x1>
  1009f0:	00 04 ab 77 		MOVE	r3,0x88	; 88 <embc02_EventCount>
  1009f4:	00 04 ad 9a 		MOVE	r1,0x65	; 65 <RegInt1Msk>
  1009f8:	00 0e bd bf 		OR	r1,#0x40
  1009fc:	00 01 bd 9a 		MOVE	0x65,r1	; 65 <RegInt1Msk>
  100a00:	00 23 ff ff 		JUMP	ip

00100a04 <EMBC02_IVigilate_MorePacketsToCome>:
EMBC02_IVigilate_MorePacketsToCome():
  100a04:	00 0e 2b c0 		AND	r3,#0x3f
  100a08:	00 0c af bc 		MOVE	r2,r3
  100a0c:	00 23 ff ff 		JUMP	ip

00100a10 <EMBC02_IVigilate_OkToAdvertise>:
EMBC02_IVigilate_OkToAdvertise():
  100a10:	00 03 78 ff 		MOVE	-(i3,1),ipl
  100a14:	00 03 79 ff 		MOVE	-(i3,1),iph
  100a18:	00 0c af cb 		MOVE	r3,r2
  100a1c:	00 3a fd 7e 		CALLS	0x0281		; 100a04 <EMBC02_IVigilate_MorePacketsToCome>
  100a20:	00 16 a9 01 		MOVE	iph,(i3,1)+
  100a24:	00 16 a8 01 		MOVE	ipl,(i3,1)+
  100a28:	00 23 ff ff 		JUMP	ip

00100a2c <EMBC02_MorePacketsToCome_p>:
EMBC02_MorePacketsToCome_p():
  100a2c:	00 0c af bc 		MOVE	r2,r3
  100a30:	00 0e ab ff 		MOVE	r3,#0x0
  100a34:	00 0e 2c c0 		AND	r2,#0x3f
  100a38:	00 0e ab ff 		MOVE	r3,#0x0
  100a3c:	00 0c bc bf 		OR	a,r3,r2
  100a40:	00 36 fd 61 		JZS	0x029e		; 100a78 <EMBC02_MorePacketsToCome_p+0x4c>
  100a44:	00 04 af 71 		MOVE	a,0x8e	; 8e <_sizedata>
  100a48:	00 04 bf 70 		OR	a,0x8f	; 8f <_sizedata+0x1>
  100a4c:	00 32 fd 68 		JZC	0x0297		; 100a5c <EMBC02_MorePacketsToCome_p+0x30>
  100a50:	00 0e ac fe 		MOVE	r2,#0x1
  100a54:	00 0e ab ff 		MOVE	r3,#0x0
  100a58:	00 33 fd 61 		JUMP	0x029e		; 100a78 <EMBC02_MorePacketsToCome_p+0x4c>
  100a5c:	00 04 ab 73 		MOVE	r3,0x8c	; 8c <embc02_PacketDownCounter>
  100a60:	00 04 bb 72 		OR	r3,0x8d	; 8d <embc02_PacketDownCounter+0x1>
  100a64:	00 0d 9f fc 		CPL2	r2,a
  100a68:	00 0c bb fb 		OR	r3,a,r3
  100a6c:	00 0e eb fd 		MUL	r3,#0x2
  100a70:	00 0c af bc 		MOVE	r2,r3
  100a74:	00 0e 6b fe 		MULA	r3,#0x1
  100a78:	00 23 ff ff 		JUMP	ip

00100a7c <EMBC02_OkToAdvertise_p>:
EMBC02_OkToAdvertise_p():
  100a7c:	00 03 74 ff 		MOVE	-(i3,1),i2l
  100a80:	00 03 75 ff 		MOVE	-(i3,1),i2h
  100a84:	00 03 78 ff 		MOVE	-(i3,1),ipl
  100a88:	00 03 79 ff 		MOVE	-(i3,1),iph
  100a8c:	00 0c af b5 		MOVE	i2h,r3
  100a90:	00 0c af c4 		MOVE	i2l,r2
  100a94:	00 04 af 71 		MOVE	a,0x8e	; 8e <_sizedata>
  100a98:	00 04 bf 70 		OR	a,0x8f	; 8f <_sizedata+0x1>
  100a9c:	00 36 fd 3b 		JZS	0x02c4		; 100b10 <EMBC02_OkToAdvertise_p+0x94>
  100aa0:	00 04 ac 72 		MOVE	r2,0x8d	; 8d <embc02_PacketDownCounter+0x1>
  100aa4:	00 04 ab 73 		MOVE	r3,0x8c	; 8c <embc02_PacketDownCounter>
  100aa8:	00 0c bc bf 		OR	a,r3,r2
  100aac:	00 36 fd 4f 		JZS	0x02b0		; 100ac0 <EMBC02_OkToAdvertise_p+0x44>
  100ab0:	00 0d bf cf 		DEC	a,r2
  100ab4:	00 01 bf 72 		MOVE	0x8d,a	; 8d <embc02_PacketDownCounter+0x1>
  100ab8:	00 0d ff bf 		DECC	a,r3
  100abc:	00 01 bf 73 		MOVE	0x8c,a	; 8c <embc02_PacketDownCounter>
  100ac0:	00 3a fd 87 		CALLS	0x0278		; 1009e0 <EMBC02_GetEventCount>
  100ac4:	00 04 1b 75 		CMP	r3,0x8a	; 8a <embc02_PreviousEventCount>
  100ac8:	00 32 fd 4a 		JNE	0x02b5		; 100ad4 <EMBC02_OkToAdvertise_p+0x58>
  100acc:	00 04 1c 74 		CMP	r2,0x8b	; 8b <embc02_PreviousEventCount+0x1>
  100ad0:	00 36 fd 3b 		JEQ	0x02c4		; 100b10 <EMBC02_OkToAdvertise_p+0x94>
  100ad4:	00 01 bb 75 		MOVE	0x8a,r3	; 8a <embc02_PreviousEventCount>
  100ad8:	00 01 bc 74 		MOVE	0x8b,r2	; 8b <embc02_PreviousEventCount+0x1>
  100adc:	00 0e 15 fd 		CMP	i2h,#0x2
  100ae0:	00 36 fd 43 		JEQ	0x02bc		; 100af0 <EMBC02_OkToAdvertise_p+0x74>
  100ae4:	00 0e 15 fc 		CMP	i2h,#0x3
  100ae8:	00 32 fd 3d 		JNE	0x02c2		; 100b08 <EMBC02_OkToAdvertise_p+0x8c>
  100aec:	00 33 fd 40 		JUMP	0x02bf		; 100afc <EMBC02_OkToAdvertise_p+0x80>
  100af0:	00 00 fd 73 		MOVE	0x8c,#0x02	; 8c <embc02_PacketDownCounter>
  100af4:	00 00 a7 72 		MOVE	0x8d,#0x58	; 8d <embc02_PacketDownCounter+0x1>
  100af8:	00 33 fd 3b 		JUMP	0x02c4		; 100b10 <EMBC02_OkToAdvertise_p+0x94>
  100afc:	00 00 e8 73 		MOVE	0x8c,#0x17	; 8c <embc02_PacketDownCounter>
  100b00:	00 00 8f 72 		MOVE	0x8d,#0x70	; 8d <embc02_PacketDownCounter+0x1>
  100b04:	00 33 fd 3b 		JUMP	0x02c4		; 100b10 <EMBC02_OkToAdvertise_p+0x94>
  100b08:	00 00 ff 73 		MOVE	0x8c,#0x00	; 8c <embc02_PacketDownCounter>
  100b0c:	00 00 ff 72 		MOVE	0x8d,#0x00	; 8d <embc02_PacketDownCounter+0x1>
  100b10:	00 0c af 4b 		MOVE	r3,i2l
  100b14:	00 3a fd 74 		CALLS	0x028b		; 100a2c <EMBC02_MorePacketsToCome_p>
  100b18:	00 16 a9 01 		MOVE	iph,(i3,1)+
  100b1c:	00 16 a8 01 		MOVE	ipl,(i3,1)+
  100b20:	00 16 a5 01 		MOVE	i2h,(i3,1)+
  100b24:	00 16 a4 01 		MOVE	i2l,(i3,1)+
  100b28:	00 23 ff ff 		JUMP	ip

00100b2c <EMBC02_IVigilate_ChangeState>:
EMBC02_IVigilate_ChangeState():
  100b2c:	00 03 78 ff 		MOVE	-(i3,1),ipl
  100b30:	00 03 79 ff 		MOVE	-(i3,1),iph
  100b34:	00 0e 1b fd 		CMP	r3,#0x2
  100b38:	00 32 fd 23 		JNE	0x02dc		; 100b70 <EMBC02_IVigilate_ChangeState+0x44>
  100b3c:	00 3a fe 17 		CALLS	0x01e8		; 1007a0 <BMA222E_DisableIntEngine>
  100b40:	00 3a fe 06 		CALLS	0x01f9		; 1007e4 <BMA222E_EnterFallDetectionMode>
  100b44:	00 3a fe 20 		CALLS	0x01df		; 10077c <BMA222E_Wake>
  100b48:	00 04 ab f2 		MOVE	r3,0x0d	; d <RegPAOE>
  100b4c:	00 0e 2b 02 		AND	r3,#0xfd
  100b50:	00 01 bb f2 		MOVE	0x0d,r3	; d <RegPAOE>
  100b54:	00 04 ab f3 		MOVE	r3,0x0c	; c <RegPAInpE>
  100b58:	00 0e bb fd 		OR	r3,#0x2
  100b5c:	00 01 bb f3 		MOVE	0x0c,r3	; c <RegPAInpE>
  100b60:	00 04 ab 9a 		MOVE	r3,0x65	; 65 <RegInt1Msk>
  100b64:	00 0e bb bf 		OR	r3,#0x40
  100b68:	00 01 bb 9a 		MOVE	0x65,r3	; 65 <RegInt1Msk>
  100b6c:	00 33 fd 1f 		JUMP	0x02e0		; 100b80 <EMBC02_IVigilate_ChangeState+0x54>
  100b70:	00 04 ab 9a 		MOVE	r3,0x65	; 65 <RegInt1Msk>
  100b74:	00 0e 2b 40 		AND	r3,#0xbf
  100b78:	00 01 bb 9a 		MOVE	0x65,r3	; 65 <RegInt1Msk>
  100b7c:	00 3a fe 29 		CALLS	0x01d6		; 100758 <BMA222E_Suspend>
  100b80:	00 16 a9 01 		MOVE	iph,(i3,1)+
  100b84:	00 16 a8 01 		MOVE	ipl,(i3,1)+
  100b88:	00 23 ff ff 		JUMP	ip

00100b8c <EMBC02_ChangeState>:
EMBC02_ChangeState():
  100b8c:	00 03 78 ff 		MOVE	-(i3,1),ipl
  100b90:	00 03 79 ff 		MOVE	-(i3,1),iph
  100b94:	00 00 ff 77 		MOVE	0x88,#0x00	; 88 <embc02_EventCount>
  100b98:	00 00 ff 76 		MOVE	0x89,#0x00	; 89 <embc02_EventCount+0x1>
  100b9c:	00 00 ff 75 		MOVE	0x8a,#0x00	; 8a <embc02_PreviousEventCount>
  100ba0:	00 00 ff 74 		MOVE	0x8b,#0x00	; 8b <embc02_PreviousEventCount+0x1>
  100ba4:	00 00 ff 73 		MOVE	0x8c,#0x00	; 8c <embc02_PacketDownCounter>
  100ba8:	00 00 ff 72 		MOVE	0x8d,#0x00	; 8d <embc02_PacketDownCounter+0x1>
  100bac:	00 00 ff 71 		MOVE	0x8e,#0x00	; 8e <_sizedata>
  100bb0:	00 00 ff 70 		MOVE	0x8f,#0x00	; 8f <_sizedata+0x1>
  100bb4:	00 0e 1b fd 		CMP	r3,#0x2
  100bb8:	00 36 fd 09 		JEQ	0x02f6		; 100bd8 <EMBC02_ChangeState+0x4c>
  100bbc:	00 0e 1b fc 		CMP	r3,#0x3
  100bc0:	00 36 fd 04 		JEQ	0x02fb		; 100bec <EMBC02_ChangeState+0x60>
  100bc4:	00 0e 1b fe 		CMP	r3,#0x1
  100bc8:	00 32 fc f5 		JNE	0x030a		; 100c28 <EMBC02_ChangeState+0x9c>
  100bcc:	00 3a fe 17 		CALLS	0x01e8		; 1007a0 <BMA222E_DisableIntEngine>
  100bd0:	00 3a fd e5 		CALLS	0x021a		; 100868 <BMA222E_EnterTapDetectionMode>
  100bd4:	00 33 fd 00 		JUMP	0x02ff		; 100bfc <EMBC02_ChangeState+0x70>
  100bd8:	00 3a fe 17 		CALLS	0x01e8		; 1007a0 <BMA222E_DisableIntEngine>
  100bdc:	00 00 ff 71 		MOVE	0x8e,#0x00	; 8e <_sizedata>
  100be0:	00 00 fe 70 		MOVE	0x8f,#0x01	; 8f <_sizedata+0x1>
  100be4:	00 3a fd c8 		CALLS	0x0237		; 1008dc <BMA222E_EnterMovementDetectionMode>
  100be8:	00 33 fd 00 		JUMP	0x02ff		; 100bfc <EMBC02_ChangeState+0x70>
  100bec:	00 3a fe 17 		CALLS	0x01e8		; 1007a0 <BMA222E_DisableIntEngine>
  100bf0:	00 00 ff 71 		MOVE	0x8e,#0x00	; 8e <_sizedata>
  100bf4:	00 00 fe 70 		MOVE	0x8f,#0x01	; 8f <_sizedata+0x1>
  100bf8:	00 3a fe 06 		CALLS	0x01f9		; 1007e4 <BMA222E_EnterFallDetectionMode>
  100bfc:	00 3a fe 20 		CALLS	0x01df		; 10077c <BMA222E_Wake>
  100c00:	00 04 ab f2 		MOVE	r3,0x0d	; d <RegPAOE>
  100c04:	00 0e 2b 02 		AND	r3,#0xfd
  100c08:	00 01 bb f2 		MOVE	0x0d,r3	; d <RegPAOE>
  100c0c:	00 04 ab f3 		MOVE	r3,0x0c	; c <RegPAInpE>
  100c10:	00 0e bb fd 		OR	r3,#0x2
  100c14:	00 01 bb f3 		MOVE	0x0c,r3	; c <RegPAInpE>
  100c18:	00 04 ab 9a 		MOVE	r3,0x65	; 65 <RegInt1Msk>
  100c1c:	00 0e bb bf 		OR	r3,#0x40
  100c20:	00 01 bb 9a 		MOVE	0x65,r3	; 65 <RegInt1Msk>
  100c24:	00 33 fc f1 		JUMP	0x030e		; 100c38 <EMBC02_ChangeState+0xac>
  100c28:	00 04 ab 9a 		MOVE	r3,0x65	; 65 <RegInt1Msk>
  100c2c:	00 0e 2b 40 		AND	r3,#0xbf
  100c30:	00 01 bb 9a 		MOVE	0x65,r3	; 65 <RegInt1Msk>
  100c34:	00 3a fe 29 		CALLS	0x01d6		; 100758 <BMA222E_Suspend>
  100c38:	00 16 a9 01 		MOVE	iph,(i3,1)+
  100c3c:	00 16 a8 01 		MOVE	ipl,(i3,1)+
  100c40:	00 23 ff ff 		JUMP	ip

00100c44 <EMBC02_PowerOnInit>:
EMBC02_PowerOnInit():
  100c44:	00 03 78 ff 		MOVE	-(i3,1),ipl
  100c48:	00 03 79 ff 		MOVE	-(i3,1),iph
  100c4c:	00 04 ab 9a 		MOVE	r3,0x65	; 65 <RegInt1Msk>
  100c50:	00 0e 2b 40 		AND	r3,#0xbf
  100c54:	00 01 bb 9a 		MOVE	0x65,r3	; 65 <RegInt1Msk>
  100c58:	00 00 ff 77 		MOVE	0x88,#0x00	; 88 <embc02_EventCount>
  100c5c:	00 00 ff 76 		MOVE	0x89,#0x00	; 89 <embc02_EventCount+0x1>
  100c60:	00 00 ff 75 		MOVE	0x8a,#0x00	; 8a <embc02_PreviousEventCount>
  100c64:	00 00 ff 74 		MOVE	0x8b,#0x00	; 8b <embc02_PreviousEventCount+0x1>
  100c68:	00 00 ff 73 		MOVE	0x8c,#0x00	; 8c <embc02_PacketDownCounter>
  100c6c:	00 00 ff 72 		MOVE	0x8d,#0x00	; 8d <embc02_PacketDownCounter+0x1>
  100c70:	00 00 ff 71 		MOVE	0x8e,#0x00	; 8e <_sizedata>
  100c74:	00 00 ff 70 		MOVE	0x8f,#0x00	; 8f <_sizedata+0x1>
  100c78:	00 3a fd ab 		CALLS	0x0254		; 100950 <BMA222E_PowerOnInit>
  100c7c:	00 16 a9 01 		MOVE	iph,(i3,1)+
  100c80:	00 16 a8 01 		MOVE	ipl,(i3,1)+
  100c84:	00 23 ff ff 		JUMP	ip

00100c88 <HCI_LE_Read>:
HCI_LE_Read():
  100c88:	00 03 74 ff 		MOVE	-(i3,1),i2l
  100c8c:	00 03 75 ff 		MOVE	-(i3,1),i2h
  100c90:	00 03 78 ff 		MOVE	-(i3,1),ipl
  100c94:	00 03 79 ff 		MOVE	-(i3,1),iph
  100c98:	00 16 af fe 		MOVE	a,-(i3,2)
  100c9c:	00 0c af c0 		MOVE	i0l,r2
  100ca0:	00 0c af b1 		MOVE	i0h,r3
  100ca4:	00 0c af d4 		MOVE	i2l,r1
  100ca8:	00 02 fb 00 		MOVE	(i3,0),r3
  100cac:	00 02 f0 01 		MOVE	(i3,1),i0l
  100cb0:	00 3a f0 bb 		CALLS	0x0f44		; 103d10 <SPI_Start_Read>
  100cb4:	00 1e a1 00 		MOVE	i0h,(i3,0)
  100cb8:	00 1e a0 01 		MOVE	i0l,(i3,1)
  100cbc:	00 0e 1c ff 		CMP	r2,#0x0
  100cc0:	00 32 fc cc 		JNE	0x0333		; 100ccc <HCI_LE_Read+0x44>
  100cc4:	00 0c af c5 		MOVE	i2h,r2
  100cc8:	00 33 fc bb 		JUMP	0x0344		; 100d10 <HCI_LE_Read+0x88>
  100ccc:	00 0e a5 ff 		MOVE	i2h,#0x0
  100cd0:	00 33 fc be 		JUMP	0x0341		; 100d04 <HCI_LE_Read+0x7c>
  100cd4:	00 0c af 1b 		MOVE	r3,i0h
  100cd8:	00 0c af 0c 		MOVE	r2,i0l
  100cdc:	00 02 f1 00 		MOVE	(i3,0),i0h
  100ce0:	00 02 f0 01 		MOVE	(i3,1),i0l
  100ce4:	00 3a f0 a8 		CALLS	0x0f57		; 103d5c <SPI_Getc>
  100ce8:	00 1e a1 00 		MOVE	i0h,(i3,0)
  100cec:	00 1e a0 01 		MOVE	i0l,(i3,1)
  100cf0:	00 0d 1f 00 		INC	i0l,i0l
  100cf4:	00 0d 5f 11 		INCC	i0h,i0h
  100cf8:	00 0e 1c ff 		CMP	r2,#0x0
  100cfc:	00 36 fc bc 		JEQ	0x0343		; 100d0c <HCI_LE_Read+0x84>
  100d00:	00 0d 1f 55 		INC	i2h,i2h
  100d04:	00 0c 15 4f 		CMP	i2h,i2l
  100d08:	00 35 fc ca 		JLT	0x0335		; 100cd4 <HCI_LE_Read+0x4c>
  100d0c:	00 3a f0 94 		CALLS	0x0f6b		; 103dac <SPI_Stop_Read>
  100d10:	00 0c af 5c 		MOVE	r2,i2h
  100d14:	00 16 af 02 		MOVE	a,(i3,2)+
  100d18:	00 16 a9 01 		MOVE	iph,(i3,1)+
  100d1c:	00 16 a8 01 		MOVE	ipl,(i3,1)+
  100d20:	00 16 a5 01 		MOVE	i2h,(i3,1)+
  100d24:	00 16 a4 01 		MOVE	i2l,(i3,1)+
  100d28:	00 23 ff ff 		JUMP	ip

00100d2c <HCI_WaitCommandComplete>:
HCI_WaitCommandComplete():
  100d2c:	00 03 78 ff 		MOVE	-(i3,1),ipl
  100d30:	00 03 79 ff 		MOVE	-(i3,1),iph
  100d34:	00 00 ff 53 		MOVE	0xac,#0x00	; ac <_epage0bss>
  100d38:	00 0e ac 77 		MOVE	r2,#0x88
  100d3c:	00 0e ab ec 		MOVE	r3,#0x13
  100d40:	00 04 ad f5 		MOVE	r1,0x0a	; a <RegPADIn>
  100d44:	00 0c af de 		MOVE	r0,r1
  100d48:	00 0e ad ff 		MOVE	r1,#0x0
  100d4c:	00 0e 2e fb 		AND	r0,#0x4
  100d50:	00 0e ad ff 		MOVE	r1,#0x0
  100d54:	00 0c be df 		OR	a,r1,r0
  100d58:	00 36 fc a2 		JZS	0x035d		; 100d74 <HCI_WaitCommandComplete+0x48>
  100d5c:	00 0e ab fe 		MOVE	r3,#0x1
  100d60:	00 0e ac ff 		MOVE	r2,#0x0
  100d64:	00 0e ad df 		MOVE	r1,#0x20
  100d68:	00 3a fc dd 		CALLS	0x0322		; 100c88 <HCI_LE_Read>
  100d6c:	00 01 bc 53 		MOVE	0xac,r2	; ac <_epage0bss>
  100d70:	00 33 fc 9d 		JUMP	0x0362		; 100d88 <HCI_WaitCommandComplete+0x5c>
  100d74:	00 0c bc bf 		OR	a,r3,r2
  100d78:	00 36 fc 9d 		JZS	0x0362		; 100d88 <HCI_WaitCommandComplete+0x5c>
  100d7c:	00 0d bf cc 		DEC	r2,r2
  100d80:	00 0d ff bb 		DECC	r3,r3
  100d84:	00 33 fc af 		JUMP	0x0350		; 100d40 <HCI_WaitCommandComplete+0x14>
  100d88:	00 16 a9 01 		MOVE	iph,(i3,1)+
  100d8c:	00 16 a8 01 		MOVE	ipl,(i3,1)+
  100d90:	00 23 ff ff 		JUMP	ip

00100d94 <HCI_LE_Send>:
HCI_LE_Send():
  100d94:	00 03 74 ff 		MOVE	-(i3,1),i2l
  100d98:	00 03 75 ff 		MOVE	-(i3,1),i2h
  100d9c:	00 03 78 ff 		MOVE	-(i3,1),ipl
  100da0:	00 03 79 ff 		MOVE	-(i3,1),iph
  100da4:	00 16 af ff 		MOVE	a,-(i3,1)
  100da8:	00 0c af c4 		MOVE	i2l,r2
  100dac:	00 0c af b5 		MOVE	i2h,r3
  100db0:	00 1c af 02 		MOVE	a,(i2,2)
  100db4:	00 0e cf fc 		ADD	a,#0x3
  100db8:	00 02 ff 00 		MOVE	(i3,0),a
  100dbc:	00 3a f0 d3 		CALLS	0x0f2c		; 103cb0 <SPI_Start_Send>
  100dc0:	00 1f bb 00 		DEC	r3,(i3,0)
  100dc4:	00 0e 1b dd 		CMP	r3,#0x22
  100dc8:	00 30 fc 3b 		JGT	0x03c4		; 100f10 <HCI_LE_Send+0x17c>
  100dcc:	00 0c af bc 		MOVE	r2,r3
  100dd0:	00 0e ab ff 		MOVE	r3,#0x0
  100dd4:	00 0c cc cc 		ADD	r2,r2,r2
  100dd8:	00 0c db bb 		ADDC	r3,r3,r3
  100ddc:	00 0c af c0 		MOVE	i0l,r2
  100de0:	00 0e c0 3f 		ADD	i0l,#0xc0
  100de4:	00 0c af b1 		MOVE	i0h,r3
  100de8:	00 0e d1 92 		ADDC	i0h,#0x6d
  100dec:	00 18 a8 01 		MOVE	ipl,(i0,1)
  100df0:	00 18 a9 00 		MOVE	iph,(i0,0)
  100df4:	00 23 ff ff 		JUMP	ip
  100df8:	00 14 ab 01 		MOVE	r3,(i2,1)+
  100dfc:	00 3a f0 db 		CALLS	0x0f24		; 103c90 <SPI_Putc>
  100e00:	00 14 ab 01 		MOVE	r3,(i2,1)+
  100e04:	00 3a f0 db 		CALLS	0x0f24		; 103c90 <SPI_Putc>
  100e08:	00 14 ab 01 		MOVE	r3,(i2,1)+
  100e0c:	00 3a f0 db 		CALLS	0x0f24		; 103c90 <SPI_Putc>
  100e10:	00 14 ab 01 		MOVE	r3,(i2,1)+
  100e14:	00 3a f0 db 		CALLS	0x0f24		; 103c90 <SPI_Putc>
  100e18:	00 14 ab 01 		MOVE	r3,(i2,1)+
  100e1c:	00 3a f0 db 		CALLS	0x0f24		; 103c90 <SPI_Putc>
  100e20:	00 14 ab 01 		MOVE	r3,(i2,1)+
  100e24:	00 3a f0 db 		CALLS	0x0f24		; 103c90 <SPI_Putc>
  100e28:	00 14 ab 01 		MOVE	r3,(i2,1)+
  100e2c:	00 3a f0 db 		CALLS	0x0f24		; 103c90 <SPI_Putc>
  100e30:	00 14 ab 01 		MOVE	r3,(i2,1)+
  100e34:	00 3a f0 db 		CALLS	0x0f24		; 103c90 <SPI_Putc>
  100e38:	00 14 ab 01 		MOVE	r3,(i2,1)+
  100e3c:	00 3a f0 db 		CALLS	0x0f24		; 103c90 <SPI_Putc>
  100e40:	00 14 ab 01 		MOVE	r3,(i2,1)+
  100e44:	00 3a f0 db 		CALLS	0x0f24		; 103c90 <SPI_Putc>
  100e48:	00 14 ab 01 		MOVE	r3,(i2,1)+
  100e4c:	00 3a f0 db 		CALLS	0x0f24		; 103c90 <SPI_Putc>
  100e50:	00 14 ab 01 		MOVE	r3,(i2,1)+
  100e54:	00 3a f0 db 		CALLS	0x0f24		; 103c90 <SPI_Putc>
  100e58:	00 14 ab 01 		MOVE	r3,(i2,1)+
  100e5c:	00 3a f0 db 		CALLS	0x0f24		; 103c90 <SPI_Putc>
  100e60:	00 14 ab 01 		MOVE	r3,(i2,1)+
  100e64:	00 3a f0 db 		CALLS	0x0f24		; 103c90 <SPI_Putc>
  100e68:	00 14 ab 01 		MOVE	r3,(i2,1)+
  100e6c:	00 3a f0 db 		CALLS	0x0f24		; 103c90 <SPI_Putc>
  100e70:	00 14 ab 01 		MOVE	r3,(i2,1)+
  100e74:	00 3a f0 db 		CALLS	0x0f24		; 103c90 <SPI_Putc>
  100e78:	00 14 ab 01 		MOVE	r3,(i2,1)+
  100e7c:	00 3a f0 db 		CALLS	0x0f24		; 103c90 <SPI_Putc>
  100e80:	00 14 ab 01 		MOVE	r3,(i2,1)+
  100e84:	00 3a f0 db 		CALLS	0x0f24		; 103c90 <SPI_Putc>
  100e88:	00 14 ab 01 		MOVE	r3,(i2,1)+
  100e8c:	00 3a f0 db 		CALLS	0x0f24		; 103c90 <SPI_Putc>
  100e90:	00 14 ab 01 		MOVE	r3,(i2,1)+
  100e94:	00 3a f0 db 		CALLS	0x0f24		; 103c90 <SPI_Putc>
  100e98:	00 14 ab 01 		MOVE	r3,(i2,1)+
  100e9c:	00 3a f0 db 		CALLS	0x0f24		; 103c90 <SPI_Putc>
  100ea0:	00 14 ab 01 		MOVE	r3,(i2,1)+
  100ea4:	00 3a f0 db 		CALLS	0x0f24		; 103c90 <SPI_Putc>
  100ea8:	00 14 ab 01 		MOVE	r3,(i2,1)+
  100eac:	00 3a f0 db 		CALLS	0x0f24		; 103c90 <SPI_Putc>
  100eb0:	00 14 ab 01 		MOVE	r3,(i2,1)+
  100eb4:	00 3a f0 db 		CALLS	0x0f24		; 103c90 <SPI_Putc>
  100eb8:	00 14 ab 01 		MOVE	r3,(i2,1)+
  100ebc:	00 3a f0 db 		CALLS	0x0f24		; 103c90 <SPI_Putc>
  100ec0:	00 14 ab 01 		MOVE	r3,(i2,1)+
  100ec4:	00 3a f0 db 		CALLS	0x0f24		; 103c90 <SPI_Putc>
  100ec8:	00 14 ab 01 		MOVE	r3,(i2,1)+
  100ecc:	00 3a f0 db 		CALLS	0x0f24		; 103c90 <SPI_Putc>
  100ed0:	00 14 ab 01 		MOVE	r3,(i2,1)+
  100ed4:	00 3a f0 db 		CALLS	0x0f24		; 103c90 <SPI_Putc>
  100ed8:	00 14 ab 01 		MOVE	r3,(i2,1)+
  100edc:	00 3a f0 db 		CALLS	0x0f24		; 103c90 <SPI_Putc>
  100ee0:	00 14 ab 01 		MOVE	r3,(i2,1)+
  100ee4:	00 3a f0 db 		CALLS	0x0f24		; 103c90 <SPI_Putc>
  100ee8:	00 14 ab 01 		MOVE	r3,(i2,1)+
  100eec:	00 3a f0 db 		CALLS	0x0f24		; 103c90 <SPI_Putc>
  100ef0:	00 14 ab 01 		MOVE	r3,(i2,1)+
  100ef4:	00 3a f0 db 		CALLS	0x0f24		; 103c90 <SPI_Putc>
  100ef8:	00 14 ab 01 		MOVE	r3,(i2,1)+
  100efc:	00 3a f0 db 		CALLS	0x0f24		; 103c90 <SPI_Putc>
  100f00:	00 14 ab 01 		MOVE	r3,(i2,1)+
  100f04:	00 3a f0 db 		CALLS	0x0f24		; 103c90 <SPI_Putc>
  100f08:	00 1c ab 00 		MOVE	r3,(i2,0)
  100f0c:	00 3a f0 db 		CALLS	0x0f24		; 103c90 <SPI_Putc>
  100f10:	00 3a f0 c2 		CALLS	0x0f3d		; 103cf4 <SPI_Stop_Send>
  100f14:	00 16 af 01 		MOVE	a,(i3,1)+
  100f18:	00 16 a9 01 		MOVE	iph,(i3,1)+
  100f1c:	00 16 a8 01 		MOVE	ipl,(i3,1)+
  100f20:	00 16 a5 01 		MOVE	i2h,(i3,1)+
  100f24:	00 16 a4 01 		MOVE	i2l,(i3,1)+
  100f28:	00 23 ff ff 		JUMP	ip

00100f2c <SendAdvertisement>:
SendAdvertisement():
  100f2c:	00 03 75 ff 		MOVE	-(i3,1),i2h
  100f30:	00 03 78 ff 		MOVE	-(i3,1),ipl
  100f34:	00 03 79 ff 		MOVE	-(i3,1),iph
  100f38:	00 04 a5 99 		MOVE	i2h,0x66	; 66 <RegInt2Msk>
  100f3c:	00 04 ab 99 		MOVE	r3,0x66	; 66 <RegInt2Msk>
  100f40:	00 0e 2b 02 		AND	r3,#0xfd
  100f44:	00 01 bb 99 		MOVE	0x66,r3	; 66 <RegInt2Msk>
  100f48:	00 00 fe 4f 		MOVE	0xb0,#0x01	; b0 <HCI_LE_Set_Advertise_Enable_pkt+0x3>
  100f4c:	00 0e ab ff 		MOVE	r3,#0x0
  100f50:	00 0e ac 52 		MOVE	r2,#0xad
  100f54:	00 3a fc 9a 		CALLS	0x0365		; 100d94 <HCI_LE_Send>
  100f58:	00 3a fc b4 		CALLS	0x034b		; 100d2c <HCI_WaitCommandComplete>
  100f5c:	00 04 ac 39 		MOVE	r2,0xc6	; c6 <EM9301_FeatureSet>
  100f60:	00 0e ab ff 		MOVE	r3,#0x0
  100f64:	00 0e 2c f7 		AND	r2,#0x8
  100f68:	00 0e ab ff 		MOVE	r3,#0x0
  100f6c:	00 0c bc bf 		OR	a,r3,r2
  100f70:	00 36 fc 0d 		JZS	0x03f2		; 100fc8 <SendAdvertisement+0x9c>
  100f74:	00 04 ac 6d 		MOVE	r2,0x92	; 92 <EM9301_RfActivitySense>
  100f78:	00 0e ab ff 		MOVE	r3,#0x0
  100f7c:	00 04 ad f5 		MOVE	r1,0x0a	; a <RegPADIn>
  100f80:	00 0c af de 		MOVE	r0,r1
  100f84:	00 0e ad ff 		MOVE	r1,#0x0
  100f88:	00 0e 2e bf 		AND	r0,#0x40
  100f8c:	00 0e ad ff 		MOVE	r1,#0x0
  100f90:	00 0c 1d bf 		CMP	r1,r3
  100f94:	00 32 fc 17 		JNE	0x03e8		; 100fa0 <SendAdvertisement+0x74>
  100f98:	00 0c 1e cf 		CMP	r0,r2
  100f9c:	00 36 fc 20 		JEQ	0x03df		; 100f7c <SendAdvertisement+0x50>
  100fa0:	00 04 ad f5 		MOVE	r1,0x0a	; a <RegPADIn>
  100fa4:	00 0c af de 		MOVE	r0,r1
  100fa8:	00 0e ad ff 		MOVE	r1,#0x0
  100fac:	00 0e 2e bf 		AND	r0,#0x40
  100fb0:	00 0e ad ff 		MOVE	r1,#0x0
  100fb4:	00 0c 1d bf 		CMP	r1,r3
  100fb8:	00 32 fc 17 		JNE	0x03e8		; 100fa0 <SendAdvertisement+0x74>
  100fbc:	00 0c 1e cf 		CMP	r0,r2
  100fc0:	00 32 fc 17 		JNE	0x03e8		; 100fa0 <SendAdvertisement+0x74>
  100fc4:	00 33 fc 0a 		JUMP	0x03f5		; 100fd4 <SendAdvertisement+0xa8>
  100fc8:	00 0e ac eb 		MOVE	r2,#0x14
  100fcc:	00 0e ab ff 		MOVE	r3,#0x0
  100fd0:	00 3a f8 30 		CALLS	0x07cf		; 101f3c <WaitNmSec>
  100fd4:	00 04 ab 99 		MOVE	r3,0x66	; 66 <RegInt2Msk>
  100fd8:	00 0e 25 fd 		AND	i2h,#0x2
  100fdc:	00 0c b5 b5 		OR	i2h,r3,i2h
  100fe0:	00 01 b5 99 		MOVE	0x66,i2h	; 66 <RegInt2Msk>
  100fe4:	00 00 ff 4f 		MOVE	0xb0,#0x00	; b0 <HCI_LE_Set_Advertise_Enable_pkt+0x3>
  100fe8:	00 0e ab ff 		MOVE	r3,#0x0
  100fec:	00 0e ac 52 		MOVE	r2,#0xad
  100ff0:	00 3a fc 9a 		CALLS	0x0365		; 100d94 <HCI_LE_Send>
  100ff4:	00 3a fc b4 		CALLS	0x034b		; 100d2c <HCI_WaitCommandComplete>
  100ff8:	00 16 a9 01 		MOVE	iph,(i3,1)+
  100ffc:	00 16 a8 01 		MOVE	ipl,(i3,1)+
  101000:	00 16 a5 01 		MOVE	i2h,(i3,1)+
  101004:	00 23 ff ff 		JUMP	ip

00101008 <HCI_LE_Set_Advertise_Enable>:
HCI_LE_Set_Advertise_Enable():
  101008:	00 03 78 ff 		MOVE	-(i3,1),ipl
  10100c:	00 03 79 ff 		MOVE	-(i3,1),iph
  101010:	00 01 bb 4f 		MOVE	0xb0,r3	; b0 <HCI_LE_Set_Advertise_Enable_pkt+0x3>
  101014:	00 0e ab ff 		MOVE	r3,#0x0
  101018:	00 0e ac 52 		MOVE	r2,#0xad
  10101c:	00 3a fc 9a 		CALLS	0x0365		; 100d94 <HCI_LE_Send>
  101020:	00 3a fc b4 		CALLS	0x034b		; 100d2c <HCI_WaitCommandComplete>
  101024:	00 16 a9 01 		MOVE	iph,(i3,1)+
  101028:	00 16 a8 01 		MOVE	ipl,(i3,1)+
  10102c:	00 23 ff ff 		JUMP	ip

00101030 <GetRFCal_vco>:
GetRFCal_vco():
  101030:	00 04 af 38 		MOVE	a,0xc7	; c7 <RFCalState>
  101034:	00 0e 1f fe 		CMP	a,#0x1
  101038:	00 36 fb ee 		JEQ	0x0411		; 101044 <GetRFCal_vco+0x14>
  10103c:	00 0e ac 00 		MOVE	r2,#0xff
  101040:	00 33 fb ed 		JUMP	0x0412		; 101048 <GetRFCal_vco+0x18>
  101044:	00 04 ac 6c 		MOVE	r2,0x93	; 93 <EM_RF_Cal_Values>
  101048:	00 23 ff ff 		JUMP	ip

0010104c <GetRFCal_modulator>:
GetRFCal_modulator():
  10104c:	00 04 af 38 		MOVE	a,0xc7	; c7 <RFCalState>
  101050:	00 0e 1f fe 		CMP	a,#0x1
  101054:	00 36 fb e7 		JEQ	0x0418		; 101060 <GetRFCal_modulator+0x14>
  101058:	00 0e ac 00 		MOVE	r2,#0xff
  10105c:	00 33 fb e6 		JUMP	0x0419		; 101064 <GetRFCal_modulator+0x18>
  101060:	00 04 ac 6b 		MOVE	r2,0x94	; 94 <EM_RF_Cal_Values+0x1>
  101064:	00 23 ff ff 		JUMP	ip

00101068 <RFCalIsInLimits>:
RFCalIsInLimits():
  101068:	00 04 af 38 		MOVE	a,0xc7	; c7 <RFCalState>
  10106c:	00 0e 1f fe 		CMP	a,#0x1
  101070:	00 32 fb d3 		JNE	0x042c		; 1010b0 <RFCalIsInLimits+0x48>
  101074:	00 04 ab 6c 		MOVE	r3,0x93	; 93 <EM_RF_Cal_Values>
  101078:	00 0e 1b fe 		CMP	r3,#0x1
  10107c:	00 34 fb d3 		JLE	0x042c		; 1010b0 <RFCalIsInLimits+0x48>
  101080:	00 0e 1b f2 		CMP	r3,#0xd
  101084:	00 30 fb d3 		JGT	0x042c		; 1010b0 <RFCalIsInLimits+0x48>
  101088:	00 04 ad 6b 		MOVE	r1,0x94	; 94 <EM_RF_Cal_Values+0x1>
  10108c:	00 0e 1d f6 		CMP	r1,#0x9
  101090:	00 34 fb d3 		JLE	0x042c		; 1010b0 <RFCalIsInLimits+0x48>
  101094:	00 0e ac ff 		MOVE	r2,#0x0
  101098:	00 0e ab ff 		MOVE	r3,#0x0
  10109c:	00 0e 1d ca 		CMP	r1,#0x35
  1010a0:	00 30 fb d1 		JGT	0x042e		; 1010b8 <RFCalIsInLimits+0x50>
  1010a4:	00 0e ac fe 		MOVE	r2,#0x1
  1010a8:	00 0e ab ff 		MOVE	r3,#0x0
  1010ac:	00 33 fb d1 		JUMP	0x042e		; 1010b8 <RFCalIsInLimits+0x50>
  1010b0:	00 0e ac ff 		MOVE	r2,#0x0
  1010b4:	00 0e ab ff 		MOVE	r3,#0x0
  1010b8:	00 23 ff ff 		JUMP	ip

001010bc <Set9301PowerMode>:
Set9301PowerMode():
  1010bc:	00 03 78 ff 		MOVE	-(i3,1),ipl
  1010c0:	00 03 79 ff 		MOVE	-(i3,1),iph
  1010c4:	00 01 bb 4b 		MOVE	0xb4,r3	; b4 <EM_Set_Power_Mode+0x3>
  1010c8:	00 0e ab ff 		MOVE	r3,#0x0
  1010cc:	00 0e ac 4e 		MOVE	r2,#0xb1
  1010d0:	00 3a fc 9a 		CALLS	0x0365		; 100d94 <HCI_LE_Send>
  1010d4:	00 3a fc b4 		CALLS	0x034b		; 100d2c <HCI_WaitCommandComplete>
  1010d8:	00 16 a9 01 		MOVE	iph,(i3,1)+
  1010dc:	00 16 a8 01 		MOVE	ipl,(i3,1)+
  1010e0:	00 23 ff ff 		JUMP	ip

001010e4 <RFCalibration>:
RFCalibration():
  1010e4:	00 03 74 ff 		MOVE	-(i3,1),i2l
  1010e8:	00 03 75 ff 		MOVE	-(i3,1),i2h
  1010ec:	00 03 78 ff 		MOVE	-(i3,1),ipl
  1010f0:	00 03 79 ff 		MOVE	-(i3,1),iph
  1010f4:	00 16 af ff 		MOVE	a,-(i3,1)
  1010f8:	00 0c af c4 		MOVE	i2l,r2
  1010fc:	00 0c af b5 		MOVE	i2h,r3
  101100:	00 02 fd 00 		MOVE	(i3,0),r1
  101104:	00 04 ac 39 		MOVE	r2,0xc6	; c6 <EM9301_FeatureSet>
  101108:	00 0e ab ff 		MOVE	r3,#0x0
  10110c:	00 0e 2c fb 		AND	r2,#0x4
  101110:	00 0e ab ff 		MOVE	r3,#0x0
  101114:	00 0c bc bf 		OR	a,r3,r2
  101118:	00 36 fb 5e 		JZS	0x04a1		; 101284 <RFCalibration+0x1a0>
  10111c:	00 04 ac 6e 		MOVE	r2,0x91	; 91 <RFCalTemperature+0x1>
  101120:	00 04 ab 6f 		MOVE	r3,0x90	; 90 <RFCalTemperature>
  101124:	00 04 af 38 		MOVE	a,0xc7	; c7 <RFCalState>
  101128:	00 36 fb aa 		JZS	0x0455		; 101154 <RFCalibration+0x70>
  10112c:	00 0c 44 cc 		SUBD	r2,r2,i2l
  101130:	00 0c 55 bb 		SUBDC	r3,r3,i2h
  101134:	00 0e fb 7f 		TSTPAT	r3,#0x80
  101138:	00 36 fb ae 		JZS	0x0451		; 101144 <RFCalibration+0x60>
  10113c:	00 0d 9f cc 		CPL2	r2,r2
  101140:	00 0d cf bb 		CPL2C	r3,r3
  101144:	00 0e 0b fb 		CMPA	r3,#0x4
  101148:	00 32 fb ab 		JNE	0x0454		; 101150 <RFCalibration+0x6c>
  10114c:	00 0e 1c 00 		CMP	r2,#0xff
  101150:	00 34 fb 75 		JLE	0x048a		; 101228 <RFCalibration+0x144>
  101154:	00 0e a1 fe 		MOVE	i0h,#0x1
  101158:	00 0e a0 a2 		MOVE	i0l,#0x5d
  10115c:	00 0e af fd 		MOVE	a,#0x2
  101160:	00 02 cf 03 		MOVE	(i0,3),a
  101164:	00 0e af fd 		MOVE	a,#0x2
  101168:	00 02 cf 04 		MOVE	(i0,4),a
  10116c:	00 0c af 1b 		MOVE	r3,i0h
  101170:	00 0c af 0c 		MOVE	r2,i0l
  101174:	00 3a fc 9a 		CALLS	0x0365		; 100d94 <HCI_LE_Send>
  101178:	00 3a fc b4 		CALLS	0x034b		; 100d2c <HCI_WaitCommandComplete>
  10117c:	00 0e ab ff 		MOVE	r3,#0x0
  101180:	00 0e ac 3e 		MOVE	r2,#0xc1
  101184:	00 3a fc 9a 		CALLS	0x0365		; 100d94 <HCI_LE_Send>
  101188:	00 3a fc b4 		CALLS	0x034b		; 100d2c <HCI_WaitCommandComplete>
  10118c:	00 04 af 53 		MOVE	a,0xac	; ac <_epage0bss>
  101190:	00 0e 1f f9 		CMP	a,#0x6
  101194:	00 34 fb 7d 		JLE	0x0482		; 101208 <RFCalibration+0x124>
  101198:	00 0e a1 fe 		MOVE	i0h,#0x1
  10119c:	00 0e a0 ff 		MOVE	i0l,#0x0
  1011a0:	00 18 af 02 		MOVE	a,(i0,2)
  1011a4:	00 0e 1f f9 		CMP	a,#0x6
  1011a8:	00 32 fb 7d 		JNE	0x0482		; 101208 <RFCalibration+0x124>
  1011ac:	00 18 af 06 		MOVE	a,(i0,6)
  1011b0:	00 32 fb 7d 		JZC	0x0482		; 101208 <RFCalibration+0x124>
  1011b4:	00 18 af 07 		MOVE	a,(i0,7)
  1011b8:	00 01 bf 6c 		MOVE	0x93,a	; 93 <EM_RF_Cal_Values>
  1011bc:	00 18 ab 08 		MOVE	r3,(i0,8)
  1011c0:	00 01 bb 6b 		MOVE	0x94,r3	; 94 <EM_RF_Cal_Values+0x1>
  1011c4:	00 04 ae 39 		MOVE	r0,0xc6	; c6 <EM9301_FeatureSet>
  1011c8:	00 0e ad ff 		MOVE	r1,#0x0
  1011cc:	00 0e 2e fd 		AND	r0,#0x2
  1011d0:	00 0e ad ff 		MOVE	r1,#0x0
  1011d4:	00 0c be df 		OR	a,r1,r0
  1011d8:	00 36 fb 86 		JZS	0x0479		; 1011e4 <RFCalibration+0x100>
  1011dc:	00 0e cb fd 		ADD	r3,#0x2
  1011e0:	00 01 bb 6b 		MOVE	0x94,r3	; 94 <EM_RF_Cal_Values+0x1>
  1011e4:	00 01 b5 6f 		MOVE	0x90,i2h	; 90 <RFCalTemperature>
  1011e8:	00 01 b4 6e 		MOVE	0x91,i2l	; 91 <RFCalTemperature+0x1>
  1011ec:	00 00 fe 38 		MOVE	0xc7,#0x01	; c7 <RFCalState>
  1011f0:	00 05 1c 36 		INC	r2,0xc9	; c9 <RFCalEventCounter+0x1>
  1011f4:	00 05 5b 37 		INCC	r3,0xc8	; c8 <RFCalEventCounter>
  1011f8:	00 0e fb f0 		TSTPAT	r3,#0xf
  1011fc:	00 01 bf 37 		MOVE	0xc8,a	; c8 <RFCalEventCounter>
  101200:	00 01 bc 36 		MOVE	0xc9,r2	; c9 <RFCalEventCounter+0x1>
  101204:	00 33 fb 7c 		JUMP	0x0483		; 10120c <RFCalibration+0x128>
  101208:	00 00 ff 38 		MOVE	0xc7,#0x00	; c7 <RFCalState>
  10120c:	00 0e ab fe 		MOVE	r3,#0x1
  101210:	00 0e ac a2 		MOVE	r2,#0x5d
  101214:	00 0c af c0 		MOVE	i0l,r2
  101218:	00 0c af b1 		MOVE	i0h,r3
  10121c:	00 0e af ff 		MOVE	a,#0x0
  101220:	00 02 cf 03 		MOVE	(i0,3),a
  101224:	00 33 fb 66 		JUMP	0x0499		; 101264 <RFCalibration+0x180>
  101228:	00 0e ab fe 		MOVE	r3,#0x1
  10122c:	00 0e ac a2 		MOVE	r2,#0x5d
  101230:	00 0c af c0 		MOVE	i0l,r2
  101234:	00 0c af b1 		MOVE	i0h,r3
  101238:	00 0e af ff 		MOVE	a,#0x0
  10123c:	00 02 cf 03 		MOVE	(i0,3),a
  101240:	00 3a fc 9a 		CALLS	0x0365		; 100d94 <HCI_LE_Send>
  101244:	00 0e a1 fe 		MOVE	i0h,#0x1
  101248:	00 0e a0 9d 		MOVE	i0l,#0x62
  10124c:	00 04 af 6c 		MOVE	a,0x93	; 93 <EM_RF_Cal_Values>
  101250:	00 02 cf 03 		MOVE	(i0,3),a
  101254:	00 04 af 6b 		MOVE	a,0x94	; 94 <EM_RF_Cal_Values+0x1>
  101258:	00 02 cf 04 		MOVE	(i0,4),a
  10125c:	00 0c af 1b 		MOVE	r3,i0h
  101260:	00 0c af 0c 		MOVE	r2,i0l
  101264:	00 3a fc 9a 		CALLS	0x0365		; 100d94 <HCI_LE_Send>
  101268:	00 1e af 00 		MOVE	a,(i3,0)
  10126c:	00 36 fb 5f 		JZS	0x04a0		; 101280 <RFCalibration+0x19c>
  101270:	00 00 ff 3f 		MOVE	0xc0,#0x00	; c0 <EM_Set_RF_AutoCal_Config+0x3>
  101274:	00 0e ab ff 		MOVE	r3,#0x0
  101278:	00 0e ac 42 		MOVE	r2,#0xbd
  10127c:	00 3a fc 9a 		CALLS	0x0365		; 100d94 <HCI_LE_Send>
  101280:	00 3a fc b4 		CALLS	0x034b		; 100d2c <HCI_WaitCommandComplete>
  101284:	00 16 af 01 		MOVE	a,(i3,1)+
  101288:	00 16 a9 01 		MOVE	iph,(i3,1)+
  10128c:	00 16 a8 01 		MOVE	ipl,(i3,1)+
  101290:	00 16 a5 01 		MOVE	i2h,(i3,1)+
  101294:	00 16 a4 01 		MOVE	i2l,(i3,1)+
  101298:	00 23 ff ff 		JUMP	ip

0010129c <Check9301>:
Check9301():
  10129c:	00 03 74 ff 		MOVE	-(i3,1),i2l
  1012a0:	00 03 75 ff 		MOVE	-(i3,1),i2h
  1012a4:	00 03 78 ff 		MOVE	-(i3,1),ipl
  1012a8:	00 03 79 ff 		MOVE	-(i3,1),iph
  1012ac:	00 16 af fc 		MOVE	a,-(i3,4)
  1012b0:	00 02 fb 00 		MOVE	(i3,0),r3
  1012b4:	00 02 fc 01 		MOVE	(i3,1),r2
  1012b8:	00 04 af 53 		MOVE	a,0xac	; ac <_epage0bss>
  1012bc:	00 0e 1f f7 		CMP	a,#0x8
  1012c0:	00 34 fa b8 		JLE	0x0547		; 10151c <Check9301+0x280>
  1012c4:	00 0e a1 fe 		MOVE	i0h,#0x1
  1012c8:	00 0e a0 ff 		MOVE	i0l,#0x0
  1012cc:	00 18 af 00 		MOVE	a,(i0,0)
  1012d0:	00 0e 1f fb 		CMP	a,#0x4
  1012d4:	00 32 fa b8 		JNE	0x0547		; 10151c <Check9301+0x280>
  1012d8:	00 18 af 01 		MOVE	a,(i0,1)
  1012dc:	00 0e 1f f1 		CMP	a,#0xe
  1012e0:	00 32 fa b8 		JNE	0x0547		; 10151c <Check9301+0x280>
  1012e4:	00 18 af 06 		MOVE	a,(i0,6)
  1012e8:	00 32 fa b8 		JZC	0x0547		; 10151c <Check9301+0x280>
  1012ec:	00 04 ac 39 		MOVE	r2,0xc6	; c6 <EM9301_FeatureSet>
  1012f0:	00 0e ab ff 		MOVE	r3,#0x0
  1012f4:	00 0e 2c fe 		AND	r2,#0x1
  1012f8:	00 0e ab ff 		MOVE	r3,#0x0
  1012fc:	00 0c bc bf 		OR	a,r3,r2
  101300:	00 36 fa b8 		JZS	0x0547		; 10151c <Check9301+0x280>
  101304:	00 0e a5 fb 		MOVE	i2h,#0x4
  101308:	00 33 fb 35 		JUMP	0x04ca		; 101328 <Check9301+0x8c>
  10130c:	00 0c af b0 		MOVE	i0l,r3
  101310:	00 0e a1 ff 		MOVE	i0h,#0x0
  101314:	00 0e c0 ff 		ADD	i0l,#0x0
  101318:	00 0e d1 fe 		ADDC	i0h,#0x1
  10131c:	00 0e af ff 		MOVE	a,#0x0
  101320:	00 02 cf 00 		MOVE	(i0,0),a
  101324:	00 0c af b5 		MOVE	i2h,r3
  101328:	00 0d bf 5b 		DEC	r3,i2h
  10132c:	00 0e 15 ff 		CMP	i2h,#0x0
  101330:	00 32 fb 3c 		JNE	0x04c3		; 10130c <Check9301+0x70>
  101334:	00 00 00 53 		MOVE	0xac,#0xff	; ac <_epage0bss>
  101338:	00 04 ab f4 		MOVE	r3,0x0b	; b <RegPADOut>
  10133c:	00 0e bb bf 		OR	r3,#0x40
  101340:	00 01 bb f4 		MOVE	0x0b,r3	; b <RegPADOut>
  101344:	00 04 ab df 		MOVE	r3,0x20	; 20 <RegPCDOut>
  101348:	00 0e bb fb 		OR	r3,#0x4
  10134c:	00 01 bb df 		MOVE	0x20,r3	; 20 <RegPCDOut>
  101350:	00 0e ac fd 		MOVE	r2,#0x2
  101354:	00 0e ab ff 		MOVE	r3,#0x0
  101358:	00 3a f8 30 		CALLS	0x07cf		; 101f3c <WaitNmSec>
  10135c:	00 04 ab df 		MOVE	r3,0x20	; 20 <RegPCDOut>
  101360:	00 0e 2b 04 		AND	r3,#0xfb
  101364:	00 01 bb df 		MOVE	0x20,r3	; 20 <RegPCDOut>
  101368:	00 3a fc b4 		CALLS	0x034b		; 100d2c <HCI_WaitCommandComplete>
  10136c:	00 04 af 53 		MOVE	a,0xac	; ac <_epage0bss>
  101370:	00 0e 1f fc 		CMP	a,#0x3
  101374:	00 32 fa b8 		JNE	0x0547		; 10151c <Check9301+0x280>
  101378:	00 0e a1 fe 		MOVE	i0h,#0x1
  10137c:	00 0e a0 ff 		MOVE	i0l,#0x0
  101380:	00 18 af 00 		MOVE	a,(i0,0)
  101384:	00 0e 1f fb 		CMP	a,#0x4
  101388:	00 32 fa b8 		JNE	0x0547		; 10151c <Check9301+0x280>
  10138c:	00 18 af 01 		MOVE	a,(i0,1)
  101390:	00 0e 1f 00 		CMP	a,#0xff
  101394:	00 32 fa b8 		JNE	0x0547		; 10151c <Check9301+0x280>
  101398:	00 18 af 02 		MOVE	a,(i0,2)
  10139c:	00 0e 1f fe 		CMP	a,#0x1
  1013a0:	00 32 fa b8 		JNE	0x0547		; 10151c <Check9301+0x280>
  1013a4:	00 18 af 03 		MOVE	a,(i0,3)
  1013a8:	00 0e 1f fe 		CMP	a,#0x1
  1013ac:	00 32 fa b8 		JNE	0x0547		; 10151c <Check9301+0x280>
  1013b0:	00 04 ac 39 		MOVE	r2,0xc6	; c6 <EM9301_FeatureSet>
  1013b4:	00 0e ab ff 		MOVE	r3,#0x0
  1013b8:	00 0e 2c fb 		AND	r2,#0x4
  1013bc:	00 0e ab ff 		MOVE	r3,#0x0
  1013c0:	00 0c bc bf 		OR	a,r3,r2
  1013c4:	00 36 fa ca 		JZS	0x0535		; 1014d4 <Check9301+0x238>
  1013c8:	00 0e ab fe 		MOVE	r3,#0x1
  1013cc:	00 0e ac a2 		MOVE	r2,#0x5d
  1013d0:	00 0c af c2 		MOVE	i1l,r2
  1013d4:	00 0c af b3 		MOVE	i1h,r3
  1013d8:	00 02 d5 03 		MOVE	(i1,3),i2h
  1013dc:	00 01 b5 3f 		MOVE	0xc0,i2h	; c0 <EM_Set_RF_AutoCal_Config+0x3>
  1013e0:	00 02 f1 02 		MOVE	(i3,2),i0h
  1013e4:	00 02 f0 03 		MOVE	(i3,3),i0l
  1013e8:	00 3a fc 9a 		CALLS	0x0365		; 100d94 <HCI_LE_Send>
  1013ec:	00 0e ab ff 		MOVE	r3,#0x0
  1013f0:	00 0e ac 42 		MOVE	r2,#0xbd
  1013f4:	00 3a fc 9a 		CALLS	0x0365		; 100d94 <HCI_LE_Send>
  1013f8:	00 3a fc b4 		CALLS	0x034b		; 100d2c <HCI_WaitCommandComplete>
  1013fc:	00 0e ab ff 		MOVE	r3,#0x0
  101400:	00 0e ac 3e 		MOVE	r2,#0xc1
  101404:	00 3a fc 9a 		CALLS	0x0365		; 100d94 <HCI_LE_Send>
  101408:	00 3a fc b4 		CALLS	0x034b		; 100d2c <HCI_WaitCommandComplete>
  10140c:	00 1e a1 02 		MOVE	i0h,(i3,2)
  101410:	00 1e a0 03 		MOVE	i0l,(i3,3)
  101414:	00 04 af 53 		MOVE	a,0xac	; ac <_epage0bss>
  101418:	00 0e 1f f9 		CMP	a,#0x6
  10141c:	00 34 fa b8 		JLE	0x0547		; 10151c <Check9301+0x280>
  101420:	00 18 af 02 		MOVE	a,(i0,2)
  101424:	00 0e 1f f9 		CMP	a,#0x6
  101428:	00 32 fa b8 		JNE	0x0547		; 10151c <Check9301+0x280>
  10142c:	00 18 af 06 		MOVE	a,(i0,6)
  101430:	00 32 fa b8 		JZC	0x0547		; 10151c <Check9301+0x280>
  101434:	00 0e a1 fe 		MOVE	i0h,#0x1
  101438:	00 0e a0 ff 		MOVE	i0l,#0x0
  10143c:	00 18 ab 08 		MOVE	r3,(i0,8)
  101440:	00 18 af 07 		MOVE	a,(i0,7)
  101444:	00 0e 1f fc 		CMP	a,#0x3
  101448:	00 30 fa ea 		JGT	0x0515		; 101454 <Check9301+0x1b8>
  10144c:	00 0e a4 f9 		MOVE	i2l,#0x6
  101450:	00 33 fa e9 		JUMP	0x0516		; 101458 <Check9301+0x1bc>
  101454:	00 0e a4 fe 		MOVE	i2l,#0x1
  101458:	00 0e 1b df 		CMP	r3,#0x20
  10145c:	00 30 fa e5 		JGT	0x051a		; 101468 <Check9301+0x1cc>
  101460:	00 0e a5 cf 		MOVE	i2h,#0x30
  101464:	00 33 fa e4 		JUMP	0x051b		; 10146c <Check9301+0x1d0>
  101468:	00 0e a5 ef 		MOVE	i2h,#0x10
  10146c:	00 0e a1 fe 		MOVE	i0h,#0x1
  101470:	00 0e a0 9d 		MOVE	i0l,#0x62
  101474:	00 02 c4 03 		MOVE	(i0,3),i2l
  101478:	00 02 c5 04 		MOVE	(i0,4),i2h
  10147c:	00 0c af 1b 		MOVE	r3,i0h
  101480:	00 0c af 0c 		MOVE	r2,i0l
  101484:	00 3a fc 9a 		CALLS	0x0365		; 100d94 <HCI_LE_Send>
  101488:	00 3a fc b4 		CALLS	0x034b		; 100d2c <HCI_WaitCommandComplete>
  10148c:	00 0e ab ff 		MOVE	r3,#0x0
  101490:	00 0e ac 3e 		MOVE	r2,#0xc1
  101494:	00 3a fc 9a 		CALLS	0x0365		; 100d94 <HCI_LE_Send>
  101498:	00 3a fc b4 		CALLS	0x034b		; 100d2c <HCI_WaitCommandComplete>
  10149c:	00 04 af 53 		MOVE	a,0xac	; ac <_epage0bss>
  1014a0:	00 0e 1f f9 		CMP	a,#0x6
  1014a4:	00 34 fa b8 		JLE	0x0547		; 10151c <Check9301+0x280>
  1014a8:	00 0e a1 fe 		MOVE	i0h,#0x1
  1014ac:	00 0e a0 ff 		MOVE	i0l,#0x0
  1014b0:	00 18 af 02 		MOVE	a,(i0,2)
  1014b4:	00 0e 1f f9 		CMP	a,#0x6
  1014b8:	00 32 fa b8 		JNE	0x0547		; 10151c <Check9301+0x280>
  1014bc:	00 18 af 06 		MOVE	a,(i0,6)
  1014c0:	00 32 fa b8 		JZC	0x0547		; 10151c <Check9301+0x280>
  1014c4:	00 18 14 07 		CMP	i2l,(i0,7)
  1014c8:	00 32 fa b8 		JNE	0x0547		; 10151c <Check9301+0x280>
  1014cc:	00 18 15 08 		CMP	i2h,(i0,8)
  1014d0:	00 32 fa b8 		JNE	0x0547		; 10151c <Check9301+0x280>
  1014d4:	00 04 ac 39 		MOVE	r2,0xc6	; c6 <EM9301_FeatureSet>
  1014d8:	00 0e ab ff 		MOVE	r3,#0x0
  1014dc:	00 0e 2c fb 		AND	r2,#0x4
  1014e0:	00 0e ab ff 		MOVE	r3,#0x0
  1014e4:	00 0c bc bf 		OR	a,r3,r2
  1014e8:	00 32 fa c2 		JZC	0x053d		; 1014f4 <Check9301+0x258>
  1014ec:	00 0e ac ff 		MOVE	r2,#0x0
  1014f0:	00 33 fa b7 		JUMP	0x0548		; 101520 <Check9301+0x284>
  1014f4:	00 1e ac 01 		MOVE	r2,(i3,1)
  1014f8:	00 1e ab 00 		MOVE	r3,(i3,0)
  1014fc:	00 0e ad ff 		MOVE	r1,#0x0
  101500:	00 3a fb c6 		CALLS	0x0439		; 1010e4 <RFCalibration>
  101504:	00 3a fb e5 		CALLS	0x041a		; 101068 <RFCalIsInLimits>
  101508:	00 0d 9f cb 		CPL2	r3,r2
  10150c:	00 0c bc fc 		OR	r2,a,r2
  101510:	00 0e ec fd 		MUL	r2,#0x2
  101514:	00 0e 4c fe 		SUBD	r2,#0x1
  101518:	00 33 fa b7 		JUMP	0x0548		; 101520 <Check9301+0x284>
  10151c:	00 0e ac fe 		MOVE	r2,#0x1
  101520:	00 16 af 04 		MOVE	a,(i3,4)+
  101524:	00 16 a9 01 		MOVE	iph,(i3,1)+
  101528:	00 16 a8 01 		MOVE	ipl,(i3,1)+
  10152c:	00 16 a5 01 		MOVE	i2h,(i3,1)+
  101530:	00 16 a4 01 		MOVE	i2l,(i3,1)+
  101534:	00 23 ff ff 		JUMP	ip

00101538 <Determine9301DieRev>:
Determine9301DieRev():
  101538:	00 03 78 ff 		MOVE	-(i3,1),ipl
  10153c:	00 03 79 ff 		MOVE	-(i3,1),iph
  101540:	00 0e ab ff 		MOVE	r3,#0x0
  101544:	00 0e ac 35 		MOVE	r2,#0xca
  101548:	00 3a fc 9a 		CALLS	0x0365		; 100d94 <HCI_LE_Send>
  10154c:	00 3a fc b4 		CALLS	0x034b		; 100d2c <HCI_WaitCommandComplete>
  101550:	00 0e a1 fe 		MOVE	i0h,#0x1
  101554:	00 0e a0 ff 		MOVE	i0l,#0x0
  101558:	00 18 ad 09 		MOVE	r1,(i0,9)
  10155c:	00 0e ae ff 		MOVE	r0,#0x0
  101560:	00 18 ac 08 		MOVE	r2,(i0,8)
  101564:	00 0e ab ff 		MOVE	r3,#0x0
  101568:	00 0c bb db 		OR	r3,r1,r3
  10156c:	00 0c bc ec 		OR	r2,r0,r2
  101570:	00 01 bb 3b 		MOVE	0xc4,r3	; c4 <EM9301_Rev>
  101574:	00 01 bc 3a 		MOVE	0xc5,r2	; c5 <SEL_RC2>
  101578:	00 0e 1b f9 		CMP	r3,#0x6
  10157c:	00 32 fa 9b 		JNE	0x0564		; 101590 <Determine9301DieRev+0x58>
  101580:	00 0e 1c e6 		CMP	r2,#0x19
  101584:	00 32 fa 9b 		JNE	0x0564		; 101590 <Determine9301DieRev+0x58>
  101588:	00 00 fe 39 		MOVE	0xc6,#0x01	; c6 <EM9301_FeatureSet>
  10158c:	00 33 fa 96 		JUMP	0x0569		; 1015a4 <Determine9301DieRev+0x6c>
  101590:	00 0e 1b f6 		CMP	r3,#0x9
  101594:	00 32 fa 94 		JNE	0x056b		; 1015ac <Determine9301DieRev+0x74>
  101598:	00 0e 1c 6e 		CMP	r2,#0x91
  10159c:	00 32 fa 94 		JNE	0x056b		; 1015ac <Determine9301DieRev+0x74>
  1015a0:	00 00 f0 39 		MOVE	0xc6,#0x0f	; c6 <EM9301_FeatureSet>
  1015a4:	00 00 ff 6d 		MOVE	0x92,#0x00	; 92 <EM9301_RfActivitySense>
  1015a8:	00 33 fa 8c 		JUMP	0x0573		; 1015cc <Determine9301DieRev+0x94>
  1015ac:	00 0e 1b f4 		CMP	r3,#0xb
  1015b0:	00 32 fa 8d 		JNE	0x0572		; 1015c8 <Determine9301DieRev+0x90>
  1015b4:	00 0e 1c 6d 		CMP	r2,#0x92
  1015b8:	00 32 fa 8d 		JNE	0x0572		; 1015c8 <Determine9301DieRev+0x90>
  1015bc:	00 00 f2 39 		MOVE	0xc6,#0x0d	; c6 <EM9301_FeatureSet>
  1015c0:	00 00 bf 6d 		MOVE	0x92,#0x40	; 92 <EM9301_RfActivitySense>
  1015c4:	00 33 fa 8c 		JUMP	0x0573		; 1015cc <Determine9301DieRev+0x94>
  1015c8:	00 00 ff 39 		MOVE	0xc6,#0x00	; c6 <EM9301_FeatureSet>
  1015cc:	00 04 ac 39 		MOVE	r2,0xc6	; c6 <EM9301_FeatureSet>
  1015d0:	00 16 a9 01 		MOVE	iph,(i3,1)+
  1015d4:	00 16 a8 01 		MOVE	ipl,(i3,1)+
  1015d8:	00 23 ff ff 		JUMP	ip

001015dc <Enable9301ActivitySignal>:
Enable9301ActivitySignal():
  1015dc:	00 03 78 ff 		MOVE	-(i3,1),ipl
  1015e0:	00 03 79 ff 		MOVE	-(i3,1),iph
  1015e4:	00 00 fe 43 		MOVE	0xbc,#0x01	; bc <EM_Set_RF_Activity+0x3>
  1015e8:	00 0e ab ff 		MOVE	r3,#0x0
  1015ec:	00 0e ac 46 		MOVE	r2,#0xb9
  1015f0:	00 3a fc 9a 		CALLS	0x0365		; 100d94 <HCI_LE_Send>
  1015f4:	00 3a fc b4 		CALLS	0x034b		; 100d2c <HCI_WaitCommandComplete>
  1015f8:	00 16 a9 01 		MOVE	iph,(i3,1)+
  1015fc:	00 16 a8 01 		MOVE	ipl,(i3,1)+
  101600:	00 23 ff ff 		JUMP	ip

00101604 <PowerUp9301>:
PowerUp9301():
  101604:	00 03 78 ff 		MOVE	-(i3,1),ipl
  101608:	00 03 79 ff 		MOVE	-(i3,1),iph
  10160c:	00 0e 1b ff 		CMP	r3,#0x0
  101610:	00 32 fa 66 		JNE	0x0599		; 101664 <PowerUp9301+0x60>
  101614:	00 3a f5 00 		CALLS	0x0aff		; 102bfc <InitMISO>
  101618:	00 04 ab df 		MOVE	r3,0x20	; 20 <RegPCDOut>
  10161c:	00 0e 2b 04 		AND	r3,#0xfb
  101620:	00 01 bb df 		MOVE	0x20,r3	; 20 <RegPCDOut>
  101624:	00 04 ab df 		MOVE	r3,0x20	; 20 <RegPCDOut>
  101628:	00 0e bb ef 		OR	r3,#0x10
  10162c:	00 01 bb df 		MOVE	0x20,r3	; 20 <RegPCDOut>
  101630:	00 04 ab df 		MOVE	r3,0x20	; 20 <RegPCDOut>
  101634:	00 0e 2b 20 		AND	r3,#0xdf
  101638:	00 01 bb df 		MOVE	0x20,r3	; 20 <RegPCDOut>
  10163c:	00 04 ab dd 		MOVE	r3,0x22	; 22 <RegPCOE>
  101640:	00 0e bb df 		OR	r3,#0x20
  101644:	00 01 bb dd 		MOVE	0x22,r3	; 22 <RegPCOE>
  101648:	00 04 ab f4 		MOVE	r3,0x0b	; b <RegPADOut>
  10164c:	00 0e bb bf 		OR	r3,#0x40
  101650:	00 01 bb f4 		MOVE	0x0b,r3	; b <RegPADOut>
  101654:	00 04 ab f2 		MOVE	r3,0x0d	; d <RegPAOE>
  101658:	00 0e bb bf 		OR	r3,#0x40
  10165c:	00 01 bb f2 		MOVE	0x0d,r3	; d <RegPAOE>
  101660:	00 33 fa 64 		JUMP	0x059b		; 10166c <PowerUp9301+0x68>
  101664:	00 0e ab ff 		MOVE	r3,#0x0
  101668:	00 3a fb d0 		CALLS	0x042f		; 1010bc <Set9301PowerMode>
  10166c:	00 3a fc b4 		CALLS	0x034b		; 100d2c <HCI_WaitCommandComplete>
  101670:	00 16 a9 01 		MOVE	iph,(i3,1)+
  101674:	00 16 a8 01 		MOVE	ipl,(i3,1)+
  101678:	00 23 ff ff 		JUMP	ip

0010167c <fI2cDelay>:
fI2cDelay():
  10167c:	00 3f ff ff 		NOP
  101680:	00 3f ff ff 		NOP
  101684:	00 3f ff ff 		NOP
  101688:	00 3f ff ff 		NOP
  10168c:	00 3f ff ff 		NOP
  101690:	00 23 ff ff 		JUMP	ip

00101694 <fI2cSCLhigh>:
fI2cSCLhigh():
  101694:	00 04 ab e8 		MOVE	r3,0x17	; 17 <RegPBDOut>
  101698:	00 0e bb fe 		OR	r3,#0x1
  10169c:	00 01 bb e8 		MOVE	0x17,r3	; 17 <RegPBDOut>
  1016a0:	00 04 ab e9 		MOVE	r3,0x16	; 16 <RegPBDIn>
  1016a4:	00 0c af bc 		MOVE	r2,r3
  1016a8:	00 0e ab ff 		MOVE	r3,#0x0
  1016ac:	00 0e 2c fe 		AND	r2,#0x1
  1016b0:	00 0e ab ff 		MOVE	r3,#0x0
  1016b4:	00 0c bc bf 		OR	a,r3,r2
  1016b8:	00 36 fa 57 		JZS	0x05a8		; 1016a0 <fI2cSCLhigh+0xc>
  1016bc:	00 23 ff ff 		JUMP	ip

001016c0 <fI2cStartCondition>:
fI2cStartCondition():
  1016c0:	00 03 78 ff 		MOVE	-(i3,1),ipl
  1016c4:	00 03 79 ff 		MOVE	-(i3,1),iph
  1016c8:	00 00 fe 6a 		MOVE	0x95,#0x01	; 95 <i2cBusy>
  1016cc:	00 00 ff 68 		MOVE	0x97,#0x00	; 97 <i2cNoAck>
  1016d0:	00 00 ff 69 		MOVE	0x96,#0x00	; 96 <i2cBusFault>
  1016d4:	00 04 ab df 		MOVE	r3,0x20	; 20 <RegPCDOut>
  1016d8:	00 0e bb bf 		OR	r3,#0x40
  1016dc:	00 01 bb df 		MOVE	0x20,r3	; 20 <RegPCDOut>
  1016e0:	00 04 ab e8 		MOVE	r3,0x17	; 17 <RegPBDOut>
  1016e4:	00 0e bb fe 		OR	r3,#0x1
  1016e8:	00 01 bb e8 		MOVE	0x17,r3	; 17 <RegPBDOut>
  1016ec:	00 04 ab e9 		MOVE	r3,0x16	; 16 <RegPBDIn>
  1016f0:	00 0c af bc 		MOVE	r2,r3
  1016f4:	00 0e ab ff 		MOVE	r3,#0x0
  1016f8:	00 0e 2c fe 		AND	r2,#0x1
  1016fc:	00 0e ab ff 		MOVE	r3,#0x0
  101700:	00 0c bc bf 		OR	a,r3,r2
  101704:	00 36 fa 2e 		JZS	0x05d1		; 101744 <fI2cStartCondition+0x84>
  101708:	00 04 ab e0 		MOVE	r3,0x1f	; 1f <RegPCDIn>
  10170c:	00 0c af bc 		MOVE	r2,r3
  101710:	00 0e ab ff 		MOVE	r3,#0x0
  101714:	00 0e 2c bf 		AND	r2,#0x40
  101718:	00 0e ab ff 		MOVE	r3,#0x0
  10171c:	00 0c bc bf 		OR	a,r3,r2
  101720:	00 36 fa 2e 		JZS	0x05d1		; 101744 <fI2cStartCondition+0x84>
  101724:	00 04 ab df 		MOVE	r3,0x20	; 20 <RegPCDOut>
  101728:	00 0e 2b 40 		AND	r3,#0xbf
  10172c:	00 01 bb df 		MOVE	0x20,r3	; 20 <RegPCDOut>
  101730:	00 3a fa 60 		CALLS	0x059f		; 10167c <fI2cDelay>
  101734:	00 04 ab e8 		MOVE	r3,0x17	; 17 <RegPBDOut>
  101738:	00 0e 2b 01 		AND	r3,#0xfe
  10173c:	00 01 bb e8 		MOVE	0x17,r3	; 17 <RegPBDOut>
  101740:	00 33 fa 2d 		JUMP	0x05d2		; 101748 <fI2cStartCondition+0x88>
  101744:	00 00 fe 69 		MOVE	0x96,#0x01	; 96 <i2cBusFault>
  101748:	00 05 9c 69 		CPL2	r2,0x96	; 96 <i2cBusFault>
  10174c:	00 04 bc 69 		OR	r2,0x96	; 96 <i2cBusFault>
  101750:	00 0e ec fd 		MUL	r2,#0x2
  101754:	00 0e 4c fe 		SUBD	r2,#0x1
  101758:	00 16 a9 01 		MOVE	iph,(i3,1)+
  10175c:	00 16 a8 01 		MOVE	ipl,(i3,1)+
  101760:	00 23 ff ff 		JUMP	ip

00101764 <fI2cReStartCondition>:
fI2cReStartCondition():
  101764:	00 03 78 ff 		MOVE	-(i3,1),ipl
  101768:	00 03 79 ff 		MOVE	-(i3,1),iph
  10176c:	00 04 ab df 		MOVE	r3,0x20	; 20 <RegPCDOut>
  101770:	00 0e bb bf 		OR	r3,#0x40
  101774:	00 01 bb df 		MOVE	0x20,r3	; 20 <RegPCDOut>
  101778:	00 3a fa 60 		CALLS	0x059f		; 10167c <fI2cDelay>
  10177c:	00 3a fa 5a 		CALLS	0x05a5		; 101694 <fI2cSCLhigh>
  101780:	00 3a fa 60 		CALLS	0x059f		; 10167c <fI2cDelay>
  101784:	00 3a fa 4f 		CALLS	0x05b0		; 1016c0 <fI2cStartCondition>
  101788:	00 16 a9 01 		MOVE	iph,(i3,1)+
  10178c:	00 16 a8 01 		MOVE	ipl,(i3,1)+
  101790:	00 23 ff ff 		JUMP	ip

00101794 <fI2cStopCondition>:
fI2cStopCondition():
  101794:	00 03 78 ff 		MOVE	-(i3,1),ipl
  101798:	00 03 79 ff 		MOVE	-(i3,1),iph
  10179c:	00 04 ab df 		MOVE	r3,0x20	; 20 <RegPCDOut>
  1017a0:	00 0e 2b 40 		AND	r3,#0xbf
  1017a4:	00 01 bb df 		MOVE	0x20,r3	; 20 <RegPCDOut>
  1017a8:	00 3a fa 60 		CALLS	0x059f		; 10167c <fI2cDelay>
  1017ac:	00 3a fa 5a 		CALLS	0x05a5		; 101694 <fI2cSCLhigh>
  1017b0:	00 3a fa 60 		CALLS	0x059f		; 10167c <fI2cDelay>
  1017b4:	00 04 ab df 		MOVE	r3,0x20	; 20 <RegPCDOut>
  1017b8:	00 0e bb bf 		OR	r3,#0x40
  1017bc:	00 01 bb df 		MOVE	0x20,r3	; 20 <RegPCDOut>
  1017c0:	00 3a fa 60 		CALLS	0x059f		; 10167c <fI2cDelay>
  1017c4:	00 00 ff 6a 		MOVE	0x95,#0x00	; 95 <i2cBusy>
  1017c8:	00 16 a9 01 		MOVE	iph,(i3,1)+
  1017cc:	00 16 a8 01 		MOVE	ipl,(i3,1)+
  1017d0:	00 23 ff ff 		JUMP	ip

001017d4 <fI2cSendByte>:
fI2cSendByte():
  1017d4:	00 03 74 ff 		MOVE	-(i3,1),i2l
  1017d8:	00 03 75 ff 		MOVE	-(i3,1),i2h
  1017dc:	00 03 78 ff 		MOVE	-(i3,1),ipl
  1017e0:	00 03 79 ff 		MOVE	-(i3,1),iph
  1017e4:	00 0c af b5 		MOVE	i2h,r3
  1017e8:	00 0e a4 ff 		MOVE	i2l,#0x0
  1017ec:	00 0e 05 ff 		CMPA	i2h,#0x0
  1017f0:	00 31 f9 ff 		JGE	0x0600		; 101800 <fI2cSendByte+0x2c>
  1017f4:	00 04 ab df 		MOVE	r3,0x20	; 20 <RegPCDOut>
  1017f8:	00 0e bb bf 		OR	r3,#0x40
  1017fc:	00 33 f9 fd 		JUMP	0x0602		; 101808 <fI2cSendByte+0x34>
  101800:	00 04 ab df 		MOVE	r3,0x20	; 20 <RegPCDOut>
  101804:	00 0e 2b 40 		AND	r3,#0xbf
  101808:	00 01 bb df 		MOVE	0x20,r3	; 20 <RegPCDOut>
  10180c:	00 3a fa 60 		CALLS	0x059f		; 10167c <fI2cDelay>
  101810:	00 3a fa 5a 		CALLS	0x05a5		; 101694 <fI2cSCLhigh>
  101814:	00 3a fa 60 		CALLS	0x059f		; 10167c <fI2cDelay>
  101818:	00 04 ab e8 		MOVE	r3,0x17	; 17 <RegPBDOut>
  10181c:	00 0e 2b 01 		AND	r3,#0xfe
  101820:	00 01 bb e8 		MOVE	0x17,r3	; 17 <RegPBDOut>
  101824:	00 0d 1f 44 		INC	i2l,i2l
  101828:	00 0e 14 f7 		CMP	i2l,#0x8
  10182c:	00 36 f9 f1 		JEQ	0x060e		; 101838 <fI2cSendByte+0x64>
  101830:	00 0c c5 55 		ADD	i2h,i2h,i2h
  101834:	00 33 fa 04 		JUMP	0x05fb		; 1017ec <fI2cSendByte+0x18>
  101838:	00 04 ab df 		MOVE	r3,0x20	; 20 <RegPCDOut>
  10183c:	00 0e bb bf 		OR	r3,#0x40
  101840:	00 01 bb df 		MOVE	0x20,r3	; 20 <RegPCDOut>
  101844:	00 3a fa 60 		CALLS	0x059f		; 10167c <fI2cDelay>
  101848:	00 3a fa 5a 		CALLS	0x05a5		; 101694 <fI2cSCLhigh>
  10184c:	00 04 ab e0 		MOVE	r3,0x1f	; 1f <RegPCDIn>
  101850:	00 0c af bc 		MOVE	r2,r3
  101854:	00 0e ab ff 		MOVE	r3,#0x0
  101858:	00 0e 2c bf 		AND	r2,#0x40
  10185c:	00 0e ab ff 		MOVE	r3,#0x0
  101860:	00 0c bc bf 		OR	a,r3,r2
  101864:	00 36 f9 e4 		JZS	0x061b		; 10186c <fI2cSendByte+0x98>
  101868:	00 00 fe 68 		MOVE	0x97,#0x01	; 97 <i2cNoAck>
  10186c:	00 3a fa 60 		CALLS	0x059f		; 10167c <fI2cDelay>
  101870:	00 04 ab e8 		MOVE	r3,0x17	; 17 <RegPBDOut>
  101874:	00 0e 2b 01 		AND	r3,#0xfe
  101878:	00 01 bb e8 		MOVE	0x17,r3	; 17 <RegPBDOut>
  10187c:	00 05 9c 68 		CPL2	r2,0x97	; 97 <i2cNoAck>
  101880:	00 04 bc 68 		OR	r2,0x97	; 97 <i2cNoAck>
  101884:	00 0e ec fd 		MUL	r2,#0x2
  101888:	00 0e 4c fe 		SUBD	r2,#0x1
  10188c:	00 16 a9 01 		MOVE	iph,(i3,1)+
  101890:	00 16 a8 01 		MOVE	ipl,(i3,1)+
  101894:	00 16 a5 01 		MOVE	i2h,(i3,1)+
  101898:	00 16 a4 01 		MOVE	i2l,(i3,1)+
  10189c:	00 23 ff ff 		JUMP	ip

001018a0 <fSendSlaveAddress>:
fSendSlaveAddress():
  1018a0:	00 03 78 ff 		MOVE	-(i3,1),ipl
  1018a4:	00 03 79 ff 		MOVE	-(i3,1),iph
  1018a8:	00 3a fa 0a 		CALLS	0x05f5		; 1017d4 <fI2cSendByte>
  1018ac:	00 16 a9 01 		MOVE	iph,(i3,1)+
  1018b0:	00 16 a8 01 		MOVE	ipl,(i3,1)+
  1018b4:	00 23 ff ff 		JUMP	ip

001018b8 <fSendSlaveSubAddress>:
fSendSlaveSubAddress():
  1018b8:	00 03 78 ff 		MOVE	-(i3,1),ipl
  1018bc:	00 03 79 ff 		MOVE	-(i3,1),iph
  1018c0:	00 3a fa 0a 		CALLS	0x05f5		; 1017d4 <fI2cSendByte>
  1018c4:	00 16 a9 01 		MOVE	iph,(i3,1)+
  1018c8:	00 16 a8 01 		MOVE	ipl,(i3,1)+
  1018cc:	00 23 ff ff 		JUMP	ip

001018d0 <fI2cSendData>:
fI2cSendData():
  1018d0:	00 03 74 ff 		MOVE	-(i3,1),i2l
  1018d4:	00 03 75 ff 		MOVE	-(i3,1),i2h
  1018d8:	00 03 78 ff 		MOVE	-(i3,1),ipl
  1018dc:	00 03 79 ff 		MOVE	-(i3,1),iph
  1018e0:	00 16 af ff 		MOVE	a,-(i3,1)
  1018e4:	00 0c af b5 		MOVE	i2h,r3
  1018e8:	00 0c af c4 		MOVE	i2l,r2
  1018ec:	00 02 fd 00 		MOVE	(i3,0),r1
  1018f0:	00 3a fa 4f 		CALLS	0x05b0		; 1016c0 <fI2cStartCondition>
  1018f4:	00 0c c4 4b 		ADD	r3,i2l,i2l
  1018f8:	00 3a f9 d7 		CALLS	0x0628		; 1018a0 <fSendSlaveAddress>
  1018fc:	00 1e ad 00 		MOVE	r1,(i3,0)
  101900:	00 0c af db 		MOVE	r3,r1
  101904:	00 3a fa 0a 		CALLS	0x05f5		; 1017d4 <fI2cSendByte>
  101908:	00 04 af 68 		MOVE	a,0x97	; 97 <i2cNoAck>
  10190c:	00 32 f9 b9 		JZC	0x0646		; 101918 <fI2cSendData+0x48>
  101910:	00 0c af 5b 		MOVE	r3,i2h
  101914:	00 3a fa 0a 		CALLS	0x05f5		; 1017d4 <fI2cSendByte>
  101918:	00 3a fa 1a 		CALLS	0x05e5		; 101794 <fI2cStopCondition>
  10191c:	00 04 ab 68 		MOVE	r3,0x97	; 97 <i2cNoAck>
  101920:	00 05 9c 69 		CPL2	r2,0x96	; 96 <i2cBusFault>
  101924:	00 04 bc 69 		OR	r2,0x96	; 96 <i2cBusFault>
  101928:	00 0e ec fd 		MUL	r2,#0x2
  10192c:	00 0d af cc 		SHL	r2,r2
  101930:	00 0d 9f bd 		CPL2	r1,r3
  101934:	00 0c bb fb 		OR	r3,a,r3
  101938:	00 0e eb fd 		MUL	r3,#0x2
  10193c:	00 0c cc bc 		ADD	r2,r3,r2
  101940:	00 16 af 01 		MOVE	a,(i3,1)+
  101944:	00 16 a9 01 		MOVE	iph,(i3,1)+
  101948:	00 16 a8 01 		MOVE	ipl,(i3,1)+
  10194c:	00 16 a5 01 		MOVE	i2h,(i3,1)+
  101950:	00 16 a4 01 		MOVE	i2l,(i3,1)+
  101954:	00 23 ff ff 		JUMP	ip

00101958 <fSendMultipleData>:
fSendMultipleData():
  101958:	00 03 74 ff 		MOVE	-(i3,1),i2l
  10195c:	00 03 75 ff 		MOVE	-(i3,1),i2h
  101960:	00 03 78 ff 		MOVE	-(i3,1),ipl
  101964:	00 03 79 ff 		MOVE	-(i3,1),iph
  101968:	00 16 af fe 		MOVE	a,-(i3,2)
  10196c:	00 0c af b5 		MOVE	i2h,r3
  101970:	00 02 fc 00 		MOVE	(i3,0),r2
  101974:	00 02 fd 01 		MOVE	(i3,1),r1
  101978:	00 0c af e4 		MOVE	i2l,r0
  10197c:	00 3a fa 4f 		CALLS	0x05b0		; 1016c0 <fI2cStartCondition>
  101980:	00 0c c4 4b 		ADD	r3,i2l,i2l
  101984:	00 3a f9 d7 		CALLS	0x0628		; 1018a0 <fSendSlaveAddress>
  101988:	00 1e ab 06 		MOVE	r3,(i3,6)
  10198c:	00 3a fa 0a 		CALLS	0x05f5		; 1017d4 <fI2cSendByte>
  101990:	00 04 af 68 		MOVE	a,0x97	; 97 <i2cNoAck>
  101994:	00 32 f9 8f 		JZC	0x0670		; 1019c0 <fSendMultipleData+0x68>
  101998:	00 1e a0 01 		MOVE	i0l,(i3,1)
  10199c:	00 1e a1 00 		MOVE	i0h,(i3,0)
  1019a0:	00 0d 1f 0f 		INC	a,i0l
  1019a4:	00 02 ff 01 		MOVE	(i3,1),a
  1019a8:	00 0d 5f 1f 		INCC	a,i0h
  1019ac:	00 02 ff 00 		MOVE	(i3,0),a
  1019b0:	00 10 ab 01 		MOVE	r3,(i0,1)+
  1019b4:	00 3a fa 0a 		CALLS	0x05f5		; 1017d4 <fI2cSendByte>
  1019b8:	00 0d bf 55 		DEC	i2h,i2h
  1019bc:	00 32 f9 9b 		JZC	0x0664		; 101990 <fSendMultipleData+0x38>
  1019c0:	00 3a fa 1a 		CALLS	0x05e5		; 101794 <fI2cStopCondition>
  1019c4:	00 04 ab 68 		MOVE	r3,0x97	; 97 <i2cNoAck>
  1019c8:	00 05 9c 69 		CPL2	r2,0x96	; 96 <i2cBusFault>
  1019cc:	00 04 bc 69 		OR	r2,0x96	; 96 <i2cBusFault>
  1019d0:	00 0e ec fd 		MUL	r2,#0x2
  1019d4:	00 0d af cc 		SHL	r2,r2
  1019d8:	00 0d 9f bd 		CPL2	r1,r3
  1019dc:	00 0c bb fb 		OR	r3,a,r3
  1019e0:	00 0e eb fd 		MUL	r3,#0x2
  1019e4:	00 0c cc bc 		ADD	r2,r3,r2
  1019e8:	00 16 af 02 		MOVE	a,(i3,2)+
  1019ec:	00 16 a9 01 		MOVE	iph,(i3,1)+
  1019f0:	00 16 a8 01 		MOVE	ipl,(i3,1)+
  1019f4:	00 16 a5 01 		MOVE	i2h,(i3,1)+
  1019f8:	00 16 a4 01 		MOVE	i2l,(i3,1)+
  1019fc:	00 23 ff ff 		JUMP	ip

00101a00 <fSlaveTest>:
fSlaveTest():
  101a00:	00 03 75 ff 		MOVE	-(i3,1),i2h
  101a04:	00 03 78 ff 		MOVE	-(i3,1),ipl
  101a08:	00 03 79 ff 		MOVE	-(i3,1),iph
  101a0c:	00 0c af b5 		MOVE	i2h,r3
  101a10:	00 3a fa 4f 		CALLS	0x05b0		; 1016c0 <fI2cStartCondition>
  101a14:	00 0c c5 5b 		ADD	r3,i2h,i2h
  101a18:	00 3a fa 0a 		CALLS	0x05f5		; 1017d4 <fI2cSendByte>
  101a1c:	00 05 9c 68 		CPL2	r2,0x97	; 97 <i2cNoAck>
  101a20:	00 04 bc 68 		OR	r2,0x97	; 97 <i2cNoAck>
  101a24:	00 0e ec fd 		MUL	r2,#0x2
  101a28:	00 0e 4c fe 		SUBD	r2,#0x1
  101a2c:	00 16 a9 01 		MOVE	iph,(i3,1)+
  101a30:	00 16 a8 01 		MOVE	ipl,(i3,1)+
  101a34:	00 16 a5 01 		MOVE	i2h,(i3,1)+
  101a38:	00 23 ff ff 		JUMP	ip

00101a3c <fI2cRcvByte>:
fI2cRcvByte():
  101a3c:	00 03 74 ff 		MOVE	-(i3,1),i2l
  101a40:	00 03 75 ff 		MOVE	-(i3,1),i2h
  101a44:	00 03 78 ff 		MOVE	-(i3,1),ipl
  101a48:	00 03 79 ff 		MOVE	-(i3,1),iph
  101a4c:	00 16 af ff 		MOVE	a,-(i3,1)
  101a50:	00 02 fb 00 		MOVE	(i3,0),r3
  101a54:	00 04 ab df 		MOVE	r3,0x20	; 20 <RegPCDOut>
  101a58:	00 0e bb bf 		OR	r3,#0x40
  101a5c:	00 01 bb df 		MOVE	0x20,r3	; 20 <RegPCDOut>
  101a60:	00 0e a4 ff 		MOVE	i2l,#0x0
  101a64:	00 0c af 45 		MOVE	i2h,i2l
  101a68:	00 0c c5 55 		ADD	i2h,i2h,i2h
  101a6c:	00 3a fa 60 		CALLS	0x059f		; 10167c <fI2cDelay>
  101a70:	00 3a fa 5a 		CALLS	0x05a5		; 101694 <fI2cSCLhigh>
  101a74:	00 04 ab e0 		MOVE	r3,0x1f	; 1f <RegPCDIn>
  101a78:	00 0c af bc 		MOVE	r2,r3
  101a7c:	00 0e ab ff 		MOVE	r3,#0x0
  101a80:	00 0e 2c bf 		AND	r2,#0x40
  101a84:	00 0e ab ff 		MOVE	r3,#0x0
  101a88:	00 0c bc bf 		OR	a,r3,r2
  101a8c:	00 36 f9 5a 		JZS	0x06a5		; 101a94 <fI2cRcvByte+0x58>
  101a90:	00 0e b5 fe 		OR	i2h,#0x1
  101a94:	00 3a fa 60 		CALLS	0x059f		; 10167c <fI2cDelay>
  101a98:	00 04 ab e8 		MOVE	r3,0x17	; 17 <RegPBDOut>
  101a9c:	00 0e 2b 01 		AND	r3,#0xfe
  101aa0:	00 01 bb e8 		MOVE	0x17,r3	; 17 <RegPBDOut>
  101aa4:	00 0d 1f 44 		INC	i2l,i2l
  101aa8:	00 0e 14 f7 		CMP	i2l,#0x8
  101aac:	00 32 f9 65 		JNE	0x069a		; 101a68 <fI2cRcvByte+0x2c>
  101ab0:	00 1e af 00 		MOVE	a,(i3,0)
  101ab4:	00 0e 1f fe 		CMP	a,#0x1
  101ab8:	00 32 f9 4d 		JNE	0x06b2		; 101ac8 <fI2cRcvByte+0x8c>
  101abc:	00 04 ab df 		MOVE	r3,0x20	; 20 <RegPCDOut>
  101ac0:	00 0e bb bf 		OR	r3,#0x40
  101ac4:	00 33 f9 4b 		JUMP	0x06b4		; 101ad0 <fI2cRcvByte+0x94>
  101ac8:	00 04 ab df 		MOVE	r3,0x20	; 20 <RegPCDOut>
  101acc:	00 0e 2b 40 		AND	r3,#0xbf
  101ad0:	00 01 bb df 		MOVE	0x20,r3	; 20 <RegPCDOut>
  101ad4:	00 3a fa 60 		CALLS	0x059f		; 10167c <fI2cDelay>
  101ad8:	00 3a fa 5a 		CALLS	0x05a5		; 101694 <fI2cSCLhigh>
  101adc:	00 3a fa 60 		CALLS	0x059f		; 10167c <fI2cDelay>
  101ae0:	00 04 ab e8 		MOVE	r3,0x17	; 17 <RegPBDOut>
  101ae4:	00 0e 2b 01 		AND	r3,#0xfe
  101ae8:	00 01 bb e8 		MOVE	0x17,r3	; 17 <RegPBDOut>
  101aec:	00 04 ab df 		MOVE	r3,0x20	; 20 <RegPCDOut>
  101af0:	00 0e bb bf 		OR	r3,#0x40
  101af4:	00 01 bb df 		MOVE	0x20,r3	; 20 <RegPCDOut>
  101af8:	00 0c af 5c 		MOVE	r2,i2h
  101afc:	00 16 af 01 		MOVE	a,(i3,1)+
  101b00:	00 16 a9 01 		MOVE	iph,(i3,1)+
  101b04:	00 16 a8 01 		MOVE	ipl,(i3,1)+
  101b08:	00 16 a5 01 		MOVE	i2h,(i3,1)+
  101b0c:	00 16 a4 01 		MOVE	i2l,(i3,1)+
  101b10:	00 23 ff ff 		JUMP	ip

00101b14 <fI2cRcveive>:
fI2cRcveive():
  101b14:	00 03 74 ff 		MOVE	-(i3,1),i2l
  101b18:	00 03 75 ff 		MOVE	-(i3,1),i2h
  101b1c:	00 03 78 ff 		MOVE	-(i3,1),ipl
  101b20:	00 03 79 ff 		MOVE	-(i3,1),iph
  101b24:	00 16 af fe 		MOVE	a,-(i3,2)
  101b28:	00 0c af d4 		MOVE	i2l,r1
  101b2c:	00 0c af c5 		MOVE	i2h,r2
  101b30:	00 0c cb bf 		ADD	a,r3,r3
  101b34:	00 02 ff 00 		MOVE	(i3,0),a
  101b38:	00 02 fe 01 		MOVE	(i3,1),r0
  101b3c:	00 3a fa 4f 		CALLS	0x05b0		; 1016c0 <fI2cStartCondition>
  101b40:	00 1f 1b 00 		INC	r3,(i3,0)
  101b44:	00 3a f9 d7 		CALLS	0x0628		; 1018a0 <fSendSlaveAddress>
  101b48:	00 04 af 68 		MOVE	a,0x97	; 97 <i2cNoAck>
  101b4c:	00 02 ff 00 		MOVE	(i3,0),a
  101b50:	00 1e ae 01 		MOVE	r0,(i3,1)
  101b54:	00 1e af 00 		MOVE	a,(i3,0)
  101b58:	00 32 f9 21 		JZC	0x06de		; 101b78 <fI2cRcveive+0x64>
  101b5c:	00 0c af eb 		MOVE	r3,r0
  101b60:	00 02 fe 01 		MOVE	(i3,1),r0
  101b64:	00 3a f9 70 		CALLS	0x068f		; 101a3c <fI2cRcvByte>
  101b68:	00 03 6c 01 		MOVE	(i2,1)+,r2
  101b6c:	00 1e ae 01 		MOVE	r0,(i3,1)
  101b70:	00 0d bf ee 		DEC	r0,r0
  101b74:	00 32 f9 28 		JZC	0x06d7		; 101b5c <fI2cRcveive+0x48>
  101b78:	00 3a fa 1a 		CALLS	0x05e5		; 101794 <fI2cStopCondition>
  101b7c:	00 05 9c 69 		CPL2	r2,0x96	; 96 <i2cBusFault>
  101b80:	00 04 bc 69 		OR	r2,0x96	; 96 <i2cBusFault>
  101b84:	00 0e ec fd 		MUL	r2,#0x2
  101b88:	00 0d af cc 		SHL	r2,r2
  101b8c:	00 1f 9b 00 		CPL2	r3,(i3,0)
  101b90:	00 1e bb 00 		OR	r3,(i3,0)
  101b94:	00 0e eb fd 		MUL	r3,#0x2
  101b98:	00 0c cc bc 		ADD	r2,r3,r2
  101b9c:	00 16 af 02 		MOVE	a,(i3,2)+
  101ba0:	00 16 a9 01 		MOVE	iph,(i3,1)+
  101ba4:	00 16 a8 01 		MOVE	ipl,(i3,1)+
  101ba8:	00 16 a5 01 		MOVE	i2h,(i3,1)+
  101bac:	00 16 a4 01 		MOVE	i2l,(i3,1)+
  101bb0:	00 23 ff ff 		JUMP	ip

00101bb4 <fI2cSend>:
fI2cSend():
  101bb4:	00 03 74 ff 		MOVE	-(i3,1),i2l
  101bb8:	00 03 75 ff 		MOVE	-(i3,1),i2h
  101bbc:	00 03 78 ff 		MOVE	-(i3,1),ipl
  101bc0:	00 03 79 ff 		MOVE	-(i3,1),iph
  101bc4:	00 16 af fe 		MOVE	a,-(i3,2)
  101bc8:	00 0c af b5 		MOVE	i2h,r3
  101bcc:	00 02 fc 00 		MOVE	(i3,0),r2
  101bd0:	00 02 fd 01 		MOVE	(i3,1),r1
  101bd4:	00 0c af e4 		MOVE	i2l,r0
  101bd8:	00 3a fa 4f 		CALLS	0x05b0		; 1016c0 <fI2cStartCondition>
  101bdc:	00 0c c5 5b 		ADD	r3,i2h,i2h
  101be0:	00 3a f9 d7 		CALLS	0x0628		; 1018a0 <fSendSlaveAddress>
  101be4:	00 04 af 68 		MOVE	a,0x97	; 97 <i2cNoAck>
  101be8:	00 32 f8 fa 		JZC	0x0705		; 101c14 <fI2cSend+0x60>
  101bec:	00 1e a0 01 		MOVE	i0l,(i3,1)
  101bf0:	00 1e a1 00 		MOVE	i0h,(i3,0)
  101bf4:	00 0d 1f 0f 		INC	a,i0l
  101bf8:	00 02 ff 01 		MOVE	(i3,1),a
  101bfc:	00 0d 5f 1f 		INCC	a,i0h
  101c00:	00 02 ff 00 		MOVE	(i3,0),a
  101c04:	00 10 ab 01 		MOVE	r3,(i0,1)+
  101c08:	00 3a fa 0a 		CALLS	0x05f5		; 1017d4 <fI2cSendByte>
  101c0c:	00 0d bf 44 		DEC	i2l,i2l
  101c10:	00 32 f9 06 		JZC	0x06f9		; 101be4 <fI2cSend+0x30>
  101c14:	00 3a fa 1a 		CALLS	0x05e5		; 101794 <fI2cStopCondition>
  101c18:	00 04 ab 68 		MOVE	r3,0x97	; 97 <i2cNoAck>
  101c1c:	00 05 9c 69 		CPL2	r2,0x96	; 96 <i2cBusFault>
  101c20:	00 04 bc 69 		OR	r2,0x96	; 96 <i2cBusFault>
  101c24:	00 0e ec fd 		MUL	r2,#0x2
  101c28:	00 0d af cc 		SHL	r2,r2
  101c2c:	00 0d 9f bd 		CPL2	r1,r3
  101c30:	00 0c bb fb 		OR	r3,a,r3
  101c34:	00 0e eb fd 		MUL	r3,#0x2
  101c38:	00 0c cc bc 		ADD	r2,r3,r2
  101c3c:	00 16 af 02 		MOVE	a,(i3,2)+
  101c40:	00 16 a9 01 		MOVE	iph,(i3,1)+
  101c44:	00 16 a8 01 		MOVE	ipl,(i3,1)+
  101c48:	00 16 a5 01 		MOVE	i2h,(i3,1)+
  101c4c:	00 16 a4 01 		MOVE	i2l,(i3,1)+
  101c50:	00 23 ff ff 		JUMP	ip

00101c54 <fI2cGetMultipleData>:
fI2cGetMultipleData():
  101c54:	00 03 74 ff 		MOVE	-(i3,1),i2l
  101c58:	00 03 75 ff 		MOVE	-(i3,1),i2h
  101c5c:	00 03 78 ff 		MOVE	-(i3,1),ipl
  101c60:	00 03 79 ff 		MOVE	-(i3,1),iph
  101c64:	00 16 af fe 		MOVE	a,-(i3,2)
  101c68:	00 02 fb 00 		MOVE	(i3,0),r3
  101c6c:	00 0c af d4 		MOVE	i2l,r1
  101c70:	00 0c af c5 		MOVE	i2h,r2
  101c74:	00 0c af e1 		MOVE	i0h,r0
  101c78:	00 0c af eb 		MOVE	r3,r0
  101c7c:	00 0c af 6d 		MOVE	r1,i3l
  101c80:	00 0e cd f9 		ADD	r1,#0x6
  101c84:	00 0d 5f 7c 		INCC	r2,i3h
  101c88:	00 0e ae fe 		MOVE	r0,#0x1
  101c8c:	00 02 f1 01 		MOVE	(i3,1),i0h
  101c90:	00 3a f9 12 		CALLS	0x06ed		; 101bb4 <fI2cSend>
  101c94:	00 1e a1 01 		MOVE	i0h,(i3,1)
  101c98:	00 0c af 1b 		MOVE	r3,i0h
  101c9c:	00 0c af 5c 		MOVE	r2,i2h
  101ca0:	00 0c af 4d 		MOVE	r1,i2l
  101ca4:	00 1e ae 00 		MOVE	r0,(i3,0)
  101ca8:	00 3a f9 3a 		CALLS	0x06c5		; 101b14 <fI2cRcveive>
  101cac:	00 16 af 02 		MOVE	a,(i3,2)+
  101cb0:	00 16 a9 01 		MOVE	iph,(i3,1)+
  101cb4:	00 16 a8 01 		MOVE	ipl,(i3,1)+
  101cb8:	00 16 a5 01 		MOVE	i2h,(i3,1)+
  101cbc:	00 16 a4 01 		MOVE	i2l,(i3,1)+
  101cc0:	00 23 ff ff 		JUMP	ip

00101cc4 <fI2cGetData>:
fI2cGetData():
  101cc4:	00 03 75 ff 		MOVE	-(i3,1),i2h
  101cc8:	00 03 78 ff 		MOVE	-(i3,1),ipl
  101ccc:	00 03 79 ff 		MOVE	-(i3,1),iph
  101cd0:	00 16 af fe 		MOVE	a,-(i3,2)
  101cd4:	00 0c af b5 		MOVE	i2h,r3
  101cd8:	00 02 fc 01 		MOVE	(i3,1),r2
  101cdc:	00 0d 1f 6d 		INC	r1,i3l
  101ce0:	00 0d 5f 7c 		INCC	r2,i3h
  101ce4:	00 0e ae fe 		MOVE	r0,#0x1
  101ce8:	00 3a f9 12 		CALLS	0x06ed		; 101bb4 <fI2cSend>
  101cec:	00 0c af 5b 		MOVE	r3,i2h
  101cf0:	00 0c af 7c 		MOVE	r2,i3h
  101cf4:	00 0c af 6d 		MOVE	r1,i3l
  101cf8:	00 0e ae fe 		MOVE	r0,#0x1
  101cfc:	00 3a f9 3a 		CALLS	0x06c5		; 101b14 <fI2cRcveive>
  101d00:	00 1e ac 00 		MOVE	r2,(i3,0)
  101d04:	00 16 af 02 		MOVE	a,(i3,2)+
  101d08:	00 16 a9 01 		MOVE	iph,(i3,1)+
  101d0c:	00 16 a8 01 		MOVE	ipl,(i3,1)+
  101d10:	00 16 a5 01 		MOVE	i2h,(i3,1)+
  101d14:	00 23 ff ff 		JUMP	ip

00101d18 <LfsrNextState>:
LfsrNextState():
  101d18:	00 0e fb fe 		TSTPAT	r3,#0x1
  101d1c:	00 0c af fc 		MOVE	r2,a
  101d20:	00 0d 9f cc 		CPL2	r2,r2
  101d24:	00 0e 2c 4d 		AND	r2,#0xb2
  101d28:	00 0d 6f bb 		SHR	r3,r3
  101d2c:	00 0c 8c bc 		XOR	r2,r3,r2
  101d30:	00 23 ff ff 		JUMP	ip

00101d34 <InitTimer12>:
InitTimer12():
  101d34:	00 00 fa c2 		MOVE	0x3d,#0x05	; 3d <RegTim1Cfg>
  101d38:	00 04 ab c4 		MOVE	r3,0x3b	; 3b <RegTimersCfg>
  101d3c:	00 0e bb 7f 		OR	r3,#0x80
  101d40:	00 01 bb c4 		MOVE	0x3b,r3	; 3b <RegTimersCfg>
  101d44:	00 00 00 bf 		MOVE	0x40,#0xff	; 40 <RegTim1Full>
  101d48:	00 00 00 b9 		MOVE	0x46,#0xff	; 46 <RegTim2Full>
  101d4c:	00 23 ff ff 		JUMP	ip

00101d50 <SC_TickWait>:
SC_TickWait():
  101d50:	00 04 ac 88 		MOVE	r2,0x77	; 77 <RegSCStat0>
  101d54:	00 00 cd 60 		MOVE	0x9f,#0x32	; 9f <delayLoopTimeout>
  101d58:	00 0e ab cd 		MOVE	r3,#0x32
  101d5c:	00 04 ad 88 		MOVE	r1,0x77	; 77 <RegSCStat0>
  101d60:	00 0c 1d cf 		CMP	r1,r2
  101d64:	00 32 f8 a3 		JNE	0x075c		; 101d70 <SC_TickWait+0x20>
  101d68:	00 0d bf bb 		DEC	r3,r3
  101d6c:	00 32 f8 a8 		JZC	0x0757		; 101d5c <SC_TickWait+0xc>
  101d70:	00 01 bb 60 		MOVE	0x9f,r3	; 9f <delayLoopTimeout>
  101d74:	00 23 ff ff 		JUMP	ip

00101d78 <ReloadSleepCounter>:
ReloadSleepCounter():
  101d78:	00 03 78 ff 		MOVE	-(i3,1),ipl
  101d7c:	00 03 79 ff 		MOVE	-(i3,1),iph
  101d80:	00 01 be 8b 		MOVE	0x74,r0	; 74 <RegSCLdVal0>
  101d84:	00 01 bd 8a 		MOVE	0x75,r1	; 75 <RegSCLdVal1>
  101d88:	00 01 bc 89 		MOVE	0x76,r2	; 76 <RegSCLdVal2>
  101d8c:	00 3a f8 ab 		CALLS	0x0754		; 101d50 <SC_TickWait>
  101d90:	00 16 a9 01 		MOVE	iph,(i3,1)+
  101d94:	00 16 a8 01 		MOVE	ipl,(i3,1)+
  101d98:	00 23 ff ff 		JUMP	ip

00101d9c <InitSleepCounter>:
InitSleepCounter():
  101d9c:	00 03 78 ff 		MOVE	-(i3,1),ipl
  101da0:	00 03 79 ff 		MOVE	-(i3,1),iph
  101da4:	00 16 af fe 		MOVE	a,-(i3,2)
  101da8:	00 00 fe 8b 		MOVE	0x74,#0x01	; 74 <RegSCLdVal0>
  101dac:	00 00 ff 8a 		MOVE	0x75,#0x00	; 75 <RegSCLdVal1>
  101db0:	00 00 ff 89 		MOVE	0x76,#0x00	; 76 <RegSCLdVal2>
  101db4:	00 04 a1 8c 		MOVE	i0h,0x73	; 73 <RegSCCfg>
  101db8:	00 0e 21 40 		AND	i0h,#0xbf
  101dbc:	00 01 b1 8c 		MOVE	0x73,i0h	; 73 <RegSCCfg>
  101dc0:	00 04 a1 8c 		MOVE	i0h,0x73	; 73 <RegSCCfg>
  101dc4:	00 0e 21 80 		AND	i0h,#0x7f
  101dc8:	00 01 b1 8c 		MOVE	0x73,i0h	; 73 <RegSCCfg>
  101dcc:	00 04 a1 99 		MOVE	i0h,0x66	; 66 <RegInt2Msk>
  101dd0:	00 0e b1 bf 		OR	i0h,#0x40
  101dd4:	00 01 b1 99 		MOVE	0x66,i0h	; 66 <RegInt2Msk>
  101dd8:	00 0e af ff 		MOVE	a,#0x0
  101ddc:	00 02 ff 00 		MOVE	(i3,0),a
  101de0:	00 02 ff 01 		MOVE	(i3,1),a
  101de4:	00 33 f8 7f 		JUMP	0x0780		; 101e00 <InitSleepCounter+0x64>
  101de8:	00 1e a0 01 		MOVE	i0l,(i3,1)
  101dec:	00 1e a1 00 		MOVE	i0h,(i3,0)
  101df0:	00 0d 1f 00 		INC	i0l,i0l
  101df4:	00 0d 5f 11 		INCC	i0h,i0h
  101df8:	00 02 f1 00 		MOVE	(i3,0),i0h
  101dfc:	00 02 f0 01 		MOVE	(i3,1),i0l
  101e00:	00 1e a0 01 		MOVE	i0l,(i3,1)
  101e04:	00 1e a1 00 		MOVE	i0h,(i3,0)
  101e08:	00 0e 11 ff 		CMP	i0h,#0x0
  101e0c:	00 32 f8 7a 		JNE	0x0785		; 101e14 <InitSleepCounter+0x78>
  101e10:	00 0e 10 f0 		CMP	i0l,#0xf
  101e14:	00 34 f8 85 		JLE	0x077a		; 101de8 <InitSleepCounter+0x4c>
  101e18:	00 04 a1 ff 		MOVE	i0h,0x00	; 0 <RegSysCfg1>
  101e1c:	00 0e b1 7f 		OR	i0h,#0x80
  101e20:	00 01 b1 ff 		MOVE	0x00,i0h	; 0 <RegSysCfg1>
  101e24:	00 0b df ff 		HALT
  101e28:	00 04 a1 99 		MOVE	i0h,0x66	; 66 <RegInt2Msk>
  101e2c:	00 0e 21 40 		AND	i0h,#0xbf
  101e30:	00 01 b1 99 		MOVE	0x66,i0h	; 66 <RegInt2Msk>
  101e34:	00 04 a1 8c 		MOVE	i0h,0x73	; 73 <RegSCCfg>
  101e38:	00 0e b1 bf 		OR	i0h,#0x40
  101e3c:	00 01 b1 8c 		MOVE	0x73,i0h	; 73 <RegSCCfg>
  101e40:	00 3a f8 a1 		CALLS	0x075e		; 101d78 <ReloadSleepCounter>
  101e44:	00 16 af 02 		MOVE	a,(i3,2)+
  101e48:	00 16 a9 01 		MOVE	iph,(i3,1)+
  101e4c:	00 16 a8 01 		MOVE	ipl,(i3,1)+
  101e50:	00 23 ff ff 		JUMP	ip

00101e54 <Scale8K>:
Scale8K():
  101e54:	00 03 78 ff 		MOVE	-(i3,1),ipl
  101e58:	00 03 79 ff 		MOVE	-(i3,1),iph
  101e5c:	00 16 af fc 		MOVE	a,-(i3,4)
  101e60:	00 02 fb 00 		MOVE	(i3,0),r3
  101e64:	00 02 fc 01 		MOVE	(i3,1),r2
  101e68:	00 02 fd 02 		MOVE	(i3,2),r1
  101e6c:	00 02 fe 03 		MOVE	(i3,3),r0
  101e70:	00 04 a8 29 		MOVE	ipl,0xd6	; d6 <CalValue8K+0x1>
  101e74:	00 04 a9 2a 		MOVE	iph,0xd5	; d5 <CalValue8K>
  101e78:	00 0e ae ff 		MOVE	r0,#0x0
  101e7c:	00 0e ad ff 		MOVE	r1,#0x0
  101e80:	00 1e af 03 		MOVE	a,(i3,3)
  101e84:	00 03 7f ff 		MOVE	-(i3,1),a
  101e88:	00 1e af 03 		MOVE	a,(i3,3)
  101e8c:	00 03 7f ff 		MOVE	-(i3,1),a
  101e90:	00 1e af 03 		MOVE	a,(i3,3)
  101e94:	00 03 7f ff 		MOVE	-(i3,1),a
  101e98:	00 1e af 03 		MOVE	a,(i3,3)
  101e9c:	00 03 7f ff 		MOVE	-(i3,1),a
  101ea0:	00 03 78 ff 		MOVE	-(i3,1),ipl
  101ea4:	00 03 79 ff 		MOVE	-(i3,1),iph
  101ea8:	00 03 7e ff 		MOVE	-(i3,1),r0
  101eac:	00 03 7d ff 		MOVE	-(i3,1),r1
  101eb0:	00 39 ec 03 		CALL	0x13fc		; 104ff0 <mulsi3>
  101eb4:	00 16 af 08 		MOVE	a,(i3,8)+
  101eb8:	00 0e ee df 		MUL	r0,#0x20
  101ebc:	00 0e ed df 		MUL	r1,#0x20
  101ec0:	00 0c be fe 		OR	r0,a,r0
  101ec4:	00 0e ec df 		MUL	r2,#0x20
  101ec8:	00 0c bd fd 		OR	r1,a,r1
  101ecc:	00 0e eb df 		MUL	r3,#0x20
  101ed0:	00 0c bc fc 		OR	r2,a,r2
  101ed4:	00 16 af 04 		MOVE	a,(i3,4)+
  101ed8:	00 16 a9 01 		MOVE	iph,(i3,1)+
  101edc:	00 16 a8 01 		MOVE	ipl,(i3,1)+
  101ee0:	00 23 ff ff 		JUMP	ip

00101ee4 <RefreshSC>:
RefreshSC():
  101ee4:	00 03 78 ff 		MOVE	-(i3,1),ipl
  101ee8:	00 03 79 ff 		MOVE	-(i3,1),iph
  101eec:	00 0e ae 43 		MOVE	r0,#0xbc
  101ef0:	00 0e ad fd 		MOVE	r1,#0x2
  101ef4:	00 0e ac ff 		MOVE	r2,#0x0
  101ef8:	00 0e ab ff 		MOVE	r3,#0x0
  101efc:	00 3a f8 6a 		CALLS	0x0795		; 101e54 <Scale8K>
  101f00:	00 3a f8 98 		CALLS	0x0767		; 101d9c <InitSleepCounter>
  101f04:	00 16 a9 01 		MOVE	iph,(i3,1)+
  101f08:	00 16 a8 01 		MOVE	ipl,(i3,1)+
  101f0c:	00 23 ff ff 		JUMP	ip

00101f10 <GetDeviceSeed>:
GetDeviceSeed():
  101f10:	00 0e a1 fe 		MOVE	i0h,#0x1
  101f14:	00 0e a0 98 		MOVE	i0l,#0x67
  101f18:	00 18 ac 07 		MOVE	r2,(i0,7)
  101f1c:	00 18 8c 08 		XOR	r2,(i0,8)
  101f20:	00 18 8c 06 		XOR	r2,(i0,6)
  101f24:	00 18 8c 05 		XOR	r2,(i0,5)
  101f28:	00 18 8c 04 		XOR	r2,(i0,4)
  101f2c:	00 18 8c 03 		XOR	r2,(i0,3)
  101f30:	00 32 f8 31 		JZC	0x07ce		; 101f38 <GetDeviceSeed+0x28>
  101f34:	00 0e ac fe 		MOVE	r2,#0x1
  101f38:	00 23 ff ff 		JUMP	ip

00101f3c <WaitNmSec>:
WaitNmSec():
  101f3c:	00 03 78 ff 		MOVE	-(i3,1),ipl
  101f40:	00 03 79 ff 		MOVE	-(i3,1),iph
  101f44:	00 16 af fc 		MOVE	a,-(i3,4)
  101f48:	00 0c af ce 		MOVE	r0,r2
  101f4c:	00 0c af bd 		MOVE	r1,r3
  101f50:	00 0e ac ff 		MOVE	r2,#0x0
  101f54:	00 0e ab ff 		MOVE	r3,#0x0
  101f58:	00 3a f8 6a 		CALLS	0x0795		; 101e54 <Scale8K>
  101f5c:	00 02 fb 00 		MOVE	(i3,0),r3
  101f60:	00 02 fc 01 		MOVE	(i3,1),r2
  101f64:	00 02 fd 02 		MOVE	(i3,2),r1
  101f68:	00 02 fe 03 		MOVE	(i3,3),r0
  101f6c:	00 3a f8 ab 		CALLS	0x0754		; 101d50 <SC_TickWait>
  101f70:	00 1e ab 00 		MOVE	r3,(i3,0)
  101f74:	00 1e ac 01 		MOVE	r2,(i3,1)
  101f78:	00 1e ad 02 		MOVE	r1,(i3,2)
  101f7c:	00 1e ae 03 		MOVE	r0,(i3,3)
  101f80:	00 0d bf ee 		DEC	r0,r0
  101f84:	00 0d ff dd 		DECC	r1,r1
  101f88:	00 0d ff cc 		DECC	r2,r2
  101f8c:	00 0d ff bb 		DECC	r3,r3
  101f90:	00 0c bc bf 		OR	a,r3,r2
  101f94:	00 0c bf df 		OR	a,r1,a
  101f98:	00 0c bf ef 		OR	a,r0,a
  101f9c:	00 32 f8 28 		JZC	0x07d7		; 101f5c <WaitNmSec+0x20>
  101fa0:	00 16 af 04 		MOVE	a,(i3,4)+
  101fa4:	00 16 a9 01 		MOVE	iph,(i3,1)+
  101fa8:	00 16 a8 01 		MOVE	ipl,(i3,1)+
  101fac:	00 23 ff ff 		JUMP	ip

00101fb0 <Calibrate8KTimer>:
Calibrate8KTimer():
  101fb0:	00 03 78 ff 		MOVE	-(i3,1),ipl
  101fb4:	00 03 79 ff 		MOVE	-(i3,1),iph
  101fb8:	00 00 ff 2a 		MOVE	0xd5,#0x00	; d5 <CalValue8K>
  101fbc:	00 00 bf 29 		MOVE	0xd6,#0x40	; d6 <CalValue8K+0x1>
  101fc0:	00 00 fa c2 		MOVE	0x3d,#0x05	; 3d <RegTim1Cfg>
  101fc4:	00 04 ab c4 		MOVE	r3,0x3b	; 3b <RegTimersCfg>
  101fc8:	00 0e bb 7f 		OR	r3,#0x80
  101fcc:	00 01 bb c4 		MOVE	0x3b,r3	; 3b <RegTimersCfg>
  101fd0:	00 00 00 bf 		MOVE	0x40,#0xff	; 40 <RegTim1Full>
  101fd4:	00 00 00 b9 		MOVE	0x46,#0xff	; 46 <RegTim2Full>
  101fd8:	00 04 ab c3 		MOVE	r3,0x3c	; 3c <RegTimersStart>
  101fdc:	00 0e bb 7f 		OR	r3,#0x80
  101fe0:	00 01 bb c3 		MOVE	0x3c,r3	; 3c <RegTimersStart>
  101fe4:	00 0e ac f7 		MOVE	r2,#0x8
  101fe8:	00 0e ab ff 		MOVE	r3,#0x0
  101fec:	00 3a f8 30 		CALLS	0x07cf		; 101f3c <WaitNmSec>
  101ff0:	00 04 ab c3 		MOVE	r3,0x3c	; 3c <RegTimersStart>
  101ff4:	00 0e 2b 80 		AND	r3,#0x7f
  101ff8:	00 01 bb c3 		MOVE	0x3c,r3	; 3c <RegTimersStart>
  101ffc:	00 04 ab c0 		MOVE	r3,0x3f	; 3f <RegTim1Status>
  102000:	00 04 ac ba 		MOVE	r2,0x45	; 45 <RegTim2Status>
  102004:	00 0c af c9 		MOVE	iph,r2
  102008:	00 0c af b8 		MOVE	ipl,r3
  10200c:	00 0c af 80 		MOVE	i0l,ipl
  102010:	00 0c af 91 		MOVE	i0h,iph
  102014:	00 0e a8 ff 		MOVE	ipl,#0x0
  102018:	00 0e a9 ff 		MOVE	iph,#0x0
  10201c:	00 03 70 ff 		MOVE	-(i3,1),i0l
  102020:	00 03 71 ff 		MOVE	-(i3,1),i0h
  102024:	00 03 78 ff 		MOVE	-(i3,1),ipl
  102028:	00 03 79 ff 		MOVE	-(i3,1),iph
  10202c:	00 0e ae ff 		MOVE	r0,#0x0
  102030:	00 0e ad 5f 		MOVE	r1,#0xa0
  102034:	00 0e ac f0 		MOVE	r2,#0xf
  102038:	00 0e ab ff 		MOVE	r3,#0x0
  10203c:	00 39 eb c1 		CALL	0x143e		; 1050f8 <udivmodsi4>
  102040:	00 16 a9 01 		MOVE	iph,(i3,1)+
  102044:	00 16 a8 01 		MOVE	ipl,(i3,1)+
  102048:	00 16 a1 01 		MOVE	i0h,(i3,1)+
  10204c:	00 16 a0 01 		MOVE	i0l,(i3,1)+
  102050:	00 01 bd 2a 		MOVE	0xd5,r1	; d5 <CalValue8K>
  102054:	00 01 be 29 		MOVE	0xd6,r0	; d6 <CalValue8K+0x1>
  102058:	00 16 a9 01 		MOVE	iph,(i3,1)+
  10205c:	00 16 a8 01 		MOVE	ipl,(i3,1)+
  102060:	00 23 ff ff 		JUMP	ip

00102064 <Handle_Irq_Port3>:
Handle_Irq_Port3():
  102064:	00 23 ff ff 		JUMP	ip

00102068 <EnableI2LED>:
EnableI2LED():
  102068:	00 04 ab d2 		MOVE	r3,0x2d	; 2d <RegGaspMode>
  10206c:	00 0e 0b ff 		CMPA	r3,#0x0
  102070:	00 35 f7 df 		JLT	0x0820		; 102080 <EnableI2LED+0x18>
  102074:	00 04 ab e8 		MOVE	r3,0x17	; 17 <RegPBDOut>
  102078:	00 0e bb 7f 		OR	r3,#0x80
  10207c:	00 01 bb e8 		MOVE	0x17,r3	; 17 <RegPBDOut>
  102080:	00 23 ff ff 		JUMP	ip

00102084 <DisableI2LED>:
DisableI2LED():
  102084:	00 04 ab d2 		MOVE	r3,0x2d	; 2d <RegGaspMode>
  102088:	00 0e 0b ff 		CMPA	r3,#0x0
  10208c:	00 35 f7 d8 		JLT	0x0827		; 10209c <DisableI2LED+0x18>
  102090:	00 04 ab e8 		MOVE	r3,0x17	; 17 <RegPBDOut>
  102094:	00 0e 2b 80 		AND	r3,#0x7f
  102098:	00 01 bb e8 		MOVE	0x17,r3	; 17 <RegPBDOut>
  10209c:	00 23 ff ff 		JUMP	ip

001020a0 <GetIntervalFromMode>:
GetIntervalFromMode():
  1020a0:	00 04 ab 0f 		MOVE	r3,0xf0	; f0 <beaconMode>
  1020a4:	00 0e 2b cf 		AND	r3,#0x30
  1020a8:	00 0e ac ff 		MOVE	r2,#0x0
  1020ac:	00 0e 1b df 		CMP	r3,#0x20
  1020b0:	00 32 f7 d0 		JNE	0x082f		; 1020bc <GetIntervalFromMode+0x1c>
  1020b4:	00 0e 1c ff 		CMP	r2,#0x0
  1020b8:	00 36 f7 c7 		JEQ	0x0838		; 1020e0 <GetIntervalFromMode+0x40>
  1020bc:	00 0e 1b cf 		CMP	r3,#0x30
  1020c0:	00 32 f7 cc 		JNE	0x0833		; 1020cc <GetIntervalFromMode+0x2c>
  1020c4:	00 0e 1c ff 		CMP	r2,#0x0
  1020c8:	00 36 f7 c7 		JEQ	0x0838		; 1020e0 <GetIntervalFromMode+0x40>
  1020cc:	00 0e 1b ef 		CMP	r3,#0x10
  1020d0:	00 32 f7 bd 		JNE	0x0842		; 102108 <GetIntervalFromMode+0x68>
  1020d4:	00 0e 1c ff 		CMP	r2,#0x0
  1020d8:	00 32 f7 bd 		JNE	0x0842		; 102108 <GetIntervalFromMode+0x68>
  1020dc:	00 33 f7 c2 		JUMP	0x083d		; 1020f4 <GetIntervalFromMode+0x54>
  1020e0:	00 0e ae 9b 		MOVE	r0,#0x64
  1020e4:	00 0e ad ff 		MOVE	r1,#0x0
  1020e8:	00 0e ac ff 		MOVE	r2,#0x0
  1020ec:	00 0e ab ff 		MOVE	r3,#0x0
  1020f0:	00 33 f7 b9 		JUMP	0x0846		; 102118 <GetIntervalFromMode+0x78>
  1020f4:	00 0e ae 17 		MOVE	r0,#0xe8
  1020f8:	00 0e ad fc 		MOVE	r1,#0x3
  1020fc:	00 0e ac ff 		MOVE	r2,#0x0
  102100:	00 0e ab ff 		MOVE	r3,#0x0
  102104:	00 33 f7 b9 		JUMP	0x0846		; 102118 <GetIntervalFromMode+0x78>
  102108:	00 04 ae 62 		MOVE	r0,0x9d	; 9d <beaconPeriodMS+0x3>
  10210c:	00 04 ad 63 		MOVE	r1,0x9c	; 9c <beaconPeriodMS+0x2>
  102110:	00 04 ac 64 		MOVE	r2,0x9b	; 9b <beaconPeriodMS+0x1>
  102114:	00 04 ab 65 		MOVE	r3,0x9a	; 9a <beaconPeriodMS>
  102118:	00 23 ff ff 		JUMP	ip

0010211c <GetPowerFromMode>:
GetPowerFromMode():
  10211c:	00 04 ab 0f 		MOVE	r3,0xf0	; f0 <beaconMode>
  102120:	00 0e 2b 3f 		AND	r3,#0xc0
  102124:	00 0e ac ff 		MOVE	r2,#0x0
  102128:	00 0e 1b 7f 		CMP	r3,#0x80
  10212c:	00 32 f7 b1 		JNE	0x084e		; 102138 <GetPowerFromMode+0x1c>
  102130:	00 0e 1c ff 		CMP	r2,#0x0
  102134:	00 36 f7 a8 		JEQ	0x0857		; 10215c <GetPowerFromMode+0x40>
  102138:	00 0e 1b 3f 		CMP	r3,#0xc0
  10213c:	00 32 f7 ad 		JNE	0x0852		; 102148 <GetPowerFromMode+0x2c>
  102140:	00 0e 1c ff 		CMP	r2,#0x0
  102144:	00 36 f7 a0 		JEQ	0x085f		; 10217c <GetPowerFromMode+0x60>
  102148:	00 0e 1b bf 		CMP	r3,#0x40
  10214c:	00 32 f7 a4 		JNE	0x085b		; 10216c <GetPowerFromMode+0x50>
  102150:	00 0e 1c ff 		CMP	r2,#0x0
  102154:	00 32 f7 a4 		JNE	0x085b		; 10216c <GetPowerFromMode+0x50>
  102158:	00 33 f7 a6 		JUMP	0x0859		; 102164 <GetPowerFromMode+0x48>
  10215c:	00 0e ac fc 		MOVE	r2,#0x3
  102160:	00 33 f7 9f 		JUMP	0x0860		; 102180 <GetPowerFromMode+0x64>
  102164:	00 0e ac fb 		MOVE	r2,#0x4
  102168:	00 33 f7 9f 		JUMP	0x0860		; 102180 <GetPowerFromMode+0x64>
  10216c:	00 0e a1 90 		MOVE	i0h,#0x6f
  102170:	00 0e a0 bf 		MOVE	i0l,#0x40
  102174:	00 18 ac 1d 		MOVE	r2,(i0,29)
  102178:	00 33 f7 9f 		JUMP	0x0860		; 102180 <GetPowerFromMode+0x64>
  10217c:	00 0e ac f8 		MOVE	r2,#0x7
  102180:	00 23 ff ff 		JUMP	ip

00102184 <AckStickyStateWithLED>:
AckStickyStateWithLED():
  102184:	00 03 78 ff 		MOVE	-(i3,1),ipl
  102188:	00 03 79 ff 		MOVE	-(i3,1),iph
  10218c:	00 3a f8 46 		CALLS	0x07b9		; 101ee4 <RefreshSC>
  102190:	00 0e ac b4 		MOVE	r2,#0x4b
  102194:	00 0e ab ff 		MOVE	r3,#0x0
  102198:	00 3a f8 30 		CALLS	0x07cf		; 101f3c <WaitNmSec>
  10219c:	00 04 ab f4 		MOVE	r3,0x0b	; b <RegPADOut>
  1021a0:	00 0e bb ef 		OR	r3,#0x10
  1021a4:	00 01 bb f4 		MOVE	0x0b,r3	; b <RegPADOut>
  1021a8:	00 0e ac 05 		MOVE	r2,#0xfa
  1021ac:	00 0e ab ff 		MOVE	r3,#0x0
  1021b0:	00 3a f8 30 		CALLS	0x07cf		; 101f3c <WaitNmSec>
  1021b4:	00 04 ab f4 		MOVE	r3,0x0b	; b <RegPADOut>
  1021b8:	00 0e 2b 10 		AND	r3,#0xef
  1021bc:	00 01 bb f4 		MOVE	0x0b,r3	; b <RegPADOut>
  1021c0:	00 0e ac 82 		MOVE	r2,#0x7d
  1021c4:	00 0e ab ff 		MOVE	r3,#0x0
  1021c8:	00 3a f8 30 		CALLS	0x07cf		; 101f3c <WaitNmSec>
  1021cc:	00 04 ab f4 		MOVE	r3,0x0b	; b <RegPADOut>
  1021d0:	00 0e bb ef 		OR	r3,#0x10
  1021d4:	00 01 bb f4 		MOVE	0x0b,r3	; b <RegPADOut>
  1021d8:	00 0e ac 05 		MOVE	r2,#0xfa
  1021dc:	00 0e ab ff 		MOVE	r3,#0x0
  1021e0:	00 3a f8 30 		CALLS	0x07cf		; 101f3c <WaitNmSec>
  1021e4:	00 04 ab f4 		MOVE	r3,0x0b	; b <RegPADOut>
  1021e8:	00 0e 2b 10 		AND	r3,#0xef
  1021ec:	00 01 bb f4 		MOVE	0x0b,r3	; b <RegPADOut>
  1021f0:	00 16 a9 01 		MOVE	iph,(i3,1)+
  1021f4:	00 16 a8 01 		MOVE	ipl,(i3,1)+
  1021f8:	00 23 ff ff 		JUMP	ip

001021fc <SetupGPIODefaults>:
SetupGPIODefaults():
  1021fc:	00 04 ab f4 		MOVE	r3,0x0b	; b <RegPADOut>
  102200:	00 0e 2b f7 		AND	r3,#0x8
  102204:	00 01 bb f4 		MOVE	0x0b,r3	; b <RegPADOut>
  102208:	00 04 ab e8 		MOVE	r3,0x17	; 17 <RegPBDOut>
  10220c:	00 0e 2b fe 		AND	r3,#0x1
  102210:	00 01 bb e8 		MOVE	0x17,r3	; 17 <RegPBDOut>
  102214:	00 04 ab df 		MOVE	r3,0x20	; 20 <RegPCDOut>
  102218:	00 0e 2b 9f 		AND	r3,#0x60
  10221c:	00 01 bb df 		MOVE	0x20,r3	; 20 <RegPCDOut>
  102220:	00 04 ab df 		MOVE	r3,0x20	; 20 <RegPCDOut>
  102224:	00 0e bb df 		OR	r3,#0x20
  102228:	00 01 bb df 		MOVE	0x20,r3	; 20 <RegPCDOut>
  10222c:	00 04 ab f2 		MOVE	r3,0x0d	; d <RegPAOE>
  102230:	00 0e bb af 		OR	r3,#0x50
  102234:	00 01 bb f2 		MOVE	0x0d,r3	; d <RegPAOE>
  102238:	00 04 ab e6 		MOVE	r3,0x19	; 19 <RegPBOE>
  10223c:	00 0e bb 6b 		OR	r3,#0x94
  102240:	00 01 bb e6 		MOVE	0x19,r3	; 19 <RegPBOE>
  102244:	00 04 ab dd 		MOVE	r3,0x22	; 22 <RegPCOE>
  102248:	00 0e bb 8b 		OR	r3,#0x74
  10224c:	00 01 bb dd 		MOVE	0x22,r3	; 22 <RegPCOE>
  102250:	00 23 ff ff 		JUMP	ip

00102254 <EnterTerminalErrorState>:
EnterTerminalErrorState():
  102254:	00 0e aa ff 		MOVE	stat,#0x0
  102258:	00 0e fa df 		TSTPAT	stat,#0x20
  10225c:	00 32 f7 6a 		JZC	0x0895		; 102254 <EnterTerminalErrorState>
  102260:	00 04 ab f1 		MOVE	r3,0x0e	; e <RegPAPU>
  102264:	00 0e 2b 08 		AND	r3,#0xf7
  102268:	00 01 bb f1 		MOVE	0x0e,r3	; e <RegPAPU>
  10226c:	00 04 ab ff 		MOVE	r3,0x00	; 0 <RegSysCfg1>
  102270:	00 0e bb 7f 		OR	r3,#0x80
  102274:	00 01 bb ff 		MOVE	0x00,r3	; 0 <RegSysCfg1>
  102278:	00 0b df ff 		HALT
  10227c:	00 0b df ff 		HALT
  102280:	00 33 f7 60 		JUMP	0x089f		; 10227c <EnterTerminalErrorState+0x28>
  102284:	00 23 ff ff 		JUMP	ip

00102288 <GoToBeaconFailedMode>:
GoToBeaconFailedMode():
  102288:	00 03 78 ff 		MOVE	-(i3,1),ipl
  10228c:	00 03 79 ff 		MOVE	-(i3,1),iph
  102290:	00 3a f7 80 		CALLS	0x087f		; 1021fc <SetupGPIODefaults>
  102294:	00 04 ab f1 		MOVE	r3,0x0e	; e <RegPAPU>
  102298:	00 0e 2b 08 		AND	r3,#0xf7
  10229c:	00 01 bb f1 		MOVE	0x0e,r3	; e <RegPAPU>
  1022a0:	00 04 ab e6 		MOVE	r3,0x19	; 19 <RegPBOE>
  1022a4:	00 0e bb 7f 		OR	r3,#0x80
  1022a8:	00 01 bb e6 		MOVE	0x19,r3	; 19 <RegPBOE>
  1022ac:	00 04 ab e8 		MOVE	r3,0x17	; 17 <RegPBDOut>
  1022b0:	00 0e bb 7f 		OR	r3,#0x80
  1022b4:	00 01 bb e8 		MOVE	0x17,r3	; 17 <RegPBDOut>
  1022b8:	00 04 ab f4 		MOVE	r3,0x0b	; b <RegPADOut>
  1022bc:	00 0e bb ef 		OR	r3,#0x10
  1022c0:	00 01 bb f4 		MOVE	0x0b,r3	; b <RegPADOut>
  1022c4:	00 33 f7 4e 		JUMP	0x08b1		; 1022c4 <GoToBeaconFailedMode+0x3c>
  1022c8:	00 16 a9 01 		MOVE	iph,(i3,1)+
  1022cc:	00 16 a8 01 		MOVE	ipl,(i3,1)+
  1022d0:	00 23 ff ff 		JUMP	ip

001022d4 <InitParams>:
InitParams():
  1022d4:	00 03 78 ff 		MOVE	-(i3,1),ipl
  1022d8:	00 03 79 ff 		MOVE	-(i3,1),iph
  1022dc:	00 00 ff 65 		MOVE	0x9a,#0x00	; 9a <beaconPeriodMS>
  1022e0:	00 0e a1 90 		MOVE	i0h,#0x6f
  1022e4:	00 0e a0 bf 		MOVE	i0l,#0x40
  1022e8:	00 18 af 1a 		MOVE	a,(i0,26)
  1022ec:	00 01 bf 64 		MOVE	0x9b,a	; 9b <beaconPeriodMS+0x1>
  1022f0:	00 18 af 1b 		MOVE	a,(i0,27)
  1022f4:	00 01 bf 63 		MOVE	0x9c,a	; 9c <beaconPeriodMS+0x2>
  1022f8:	00 18 af 1c 		MOVE	a,(i0,28)
  1022fc:	00 01 bf 62 		MOVE	0x9d,a	; 9d <beaconPeriodMS+0x3>
  102300:	00 18 ab 1e 		MOVE	r3,(i0,30)
  102304:	00 01 bb 55 		MOVE	0xaa,r3	; aa <MON_DUMP>
  102308:	00 18 ac 1f 		MOVE	r2,(i0,31)
  10230c:	00 0e 2c fc 		AND	r2,#0x3
  102310:	00 01 bc 54 		MOVE	0xab,r2	; ab <advMachines>
  102314:	00 0d bf cc 		DEC	r2,r2
  102318:	00 0e 1c fd 		CMP	r2,#0x2
  10231c:	00 30 f7 31 		JGT	0x08ce		; 102338 <InitParams+0x64>
  102320:	00 0c af bc 		MOVE	r2,r3
  102324:	00 0e ab ff 		MOVE	r3,#0x0
  102328:	00 0e 2c c0 		AND	r2,#0x3f
  10232c:	00 0e ab ff 		MOVE	r3,#0x0
  102330:	00 0c bc bf 		OR	a,r3,r2
  102334:	00 32 f7 30 		JZC	0x08cf		; 10233c <InitParams+0x68>
  102338:	00 3a f7 5d 		CALLS	0x08a2		; 102288 <GoToBeaconFailedMode>
  10233c:	00 16 a9 01 		MOVE	iph,(i3,1)+
  102340:	00 16 a8 01 		MOVE	ipl,(i3,1)+
  102344:	00 23 ff ff 		JUMP	ip

00102348 <MeasureLight>:
MeasureLight():
  102348:	00 0e ac ff 		MOVE	r2,#0x0
  10234c:	00 0e ab ff 		MOVE	r3,#0x0
  102350:	00 23 ff ff 		JUMP	ip

00102354 <MeasureBattery>:
MeasureBattery():
  102354:	00 03 78 ff 		MOVE	-(i3,1),ipl
  102358:	00 03 79 ff 		MOVE	-(i3,1),iph
  10235c:	00 16 af fe 		MOVE	a,-(i3,2)
  102360:	00 04 ab aa 		MOVE	r3,0x55	; 55 <RegADCCfg1>
  102364:	00 0e 2b 10 		AND	r3,#0xef
  102368:	00 01 bb aa 		MOVE	0x55,r3	; 55 <RegADCCfg1>
  10236c:	00 04 ab a7 		MOVE	r3,0x58	; 58 <RegADCOut1>
  102370:	00 0e bb 8f 		OR	r3,#0x70
  102374:	00 01 bb a7 		MOVE	0x58,r3	; 58 <RegADCOut1>
  102378:	00 04 ab dd 		MOVE	r3,0x22	; 22 <RegPCOE>
  10237c:	00 0e 2b 08 		AND	r3,#0xf7
  102380:	00 01 bb dd 		MOVE	0x22,r3	; 22 <RegPCOE>
  102384:	00 04 ab de 		MOVE	r3,0x21	; 21 <RegPCInpE>
  102388:	00 0e bb f7 		OR	r3,#0x8
  10238c:	00 01 bb de 		MOVE	0x21,r3	; 21 <RegPCInpE>
  102390:	00 04 ab dc 		MOVE	r3,0x23	; 23 <RegPCPU>
  102394:	00 0e bb f7 		OR	r3,#0x8
  102398:	00 01 bb dc 		MOVE	0x23,r3	; 23 <RegPCPU>
  10239c:	00 04 ab aa 		MOVE	r3,0x55	; 55 <RegADCCfg1>
  1023a0:	00 0e 2b 01 		AND	r3,#0xfe
  1023a4:	00 01 bb aa 		MOVE	0x55,r3	; 55 <RegADCCfg1>
  1023a8:	00 04 ab a9 		MOVE	r3,0x56	; 56 <RegADCCfg2>
  1023ac:	00 0e bb cf 		OR	r3,#0x30
  1023b0:	00 01 bb a9 		MOVE	0x56,r3	; 56 <RegADCCfg2>
  1023b4:	00 0e a1 90 		MOVE	i0h,#0x6f
  1023b8:	00 0e a0 3f 		MOVE	i0l,#0xc0
  1023bc:	00 18 ab 11 		MOVE	r3,(i0,17)
  1023c0:	00 01 bb a5 		MOVE	0x5a,r3	; 5a <RegADCOffsetM>
  1023c4:	00 18 ab 10 		MOVE	r3,(i0,16)
  1023c8:	00 01 bb a6 		MOVE	0x59,r3	; 59 <RegADCOffsetL>
  1023cc:	00 04 ab aa 		MOVE	r3,0x55	; 55 <RegADCCfg1>
  1023d0:	00 0e bb 7f 		OR	r3,#0x80
  1023d4:	00 01 bb aa 		MOVE	0x55,r3	; 55 <RegADCCfg1>
  1023d8:	00 04 ab 9b 		MOVE	r3,0x64	; 64 <RegInt0Msk>
  1023dc:	00 0e bb ef 		OR	r3,#0x10
  1023e0:	00 01 bb 9b 		MOVE	0x64,r3	; 64 <RegInt0Msk>
  1023e4:	00 0e ac f5 		MOVE	r2,#0xa
  1023e8:	00 0e ab ff 		MOVE	r3,#0x0
  1023ec:	00 3a f8 30 		CALLS	0x07cf		; 101f3c <WaitNmSec>
  1023f0:	00 04 ab aa 		MOVE	r3,0x55	; 55 <RegADCCfg1>
  1023f4:	00 0e 2b 60 		AND	r3,#0x9f
  1023f8:	00 0e bb df 		OR	r3,#0x20
  1023fc:	00 01 bb aa 		MOVE	0x55,r3	; 55 <RegADCCfg1>
  102400:	00 04 ab ff 		MOVE	r3,0x00	; 0 <RegSysCfg1>
  102404:	00 0e 2b 80 		AND	r3,#0x7f
  102408:	00 01 bb ff 		MOVE	0x00,r3	; 0 <RegSysCfg1>
  10240c:	00 0b df ff 		HALT
  102410:	00 04 ab a7 		MOVE	r3,0x58	; 58 <RegADCOut1>
  102414:	00 02 fb 00 		MOVE	(i3,0),r3
  102418:	00 04 ab a8 		MOVE	r3,0x57	; 57 <RegADCOut0>
  10241c:	00 02 fb 01 		MOVE	(i3,1),r3
  102420:	00 04 ab aa 		MOVE	r3,0x55	; 55 <RegADCCfg1>
  102424:	00 0e 2b 80 		AND	r3,#0x7f
  102428:	00 01 bb aa 		MOVE	0x55,r3	; 55 <RegADCCfg1>
  10242c:	00 04 ab 9b 		MOVE	r3,0x64	; 64 <RegInt0Msk>
  102430:	00 0e 2b 10 		AND	r3,#0xef
  102434:	00 01 bb 9b 		MOVE	0x64,r3	; 64 <RegInt0Msk>
  102438:	00 04 ab dc 		MOVE	r3,0x23	; 23 <RegPCPU>
  10243c:	00 01 bb dc 		MOVE	0x23,r3	; 23 <RegPCPU>
  102440:	00 04 ab dd 		MOVE	r3,0x22	; 22 <RegPCOE>
  102444:	00 01 bb dd 		MOVE	0x22,r3	; 22 <RegPCOE>
  102448:	00 04 ab de 		MOVE	r3,0x21	; 21 <RegPCInpE>
  10244c:	00 01 bb de 		MOVE	0x21,r3	; 21 <RegPCInpE>
  102450:	00 1e ad 00 		MOVE	r1,(i3,0)
  102454:	00 1e a1 01 		MOVE	i0h,(i3,1)
  102458:	00 1e ae 00 		MOVE	r0,(i3,0)
  10245c:	00 0c af 10 		MOVE	i0l,i0h
  102460:	00 0e a1 ff 		MOVE	i0h,#0x0
  102464:	00 0c c0 00 		ADD	i0l,i0l,i0l
  102468:	00 0c d1 11 		ADDC	i0h,i0h,i0h
  10246c:	00 0e 21 fe 		AND	i0h,#0x1
  102470:	00 0e 20 01 		AND	i0l,#0xfe
  102474:	00 0c cd db 		ADD	r3,r1,r1
  102478:	00 0e ac ff 		MOVE	r2,#0x0
  10247c:	00 0e 2b f9 		AND	r3,#0x6
  102480:	00 0e ac ff 		MOVE	r2,#0x0
  102484:	00 0c bb 11 		OR	i0h,i0h,r3
  102488:	00 0c bc 00 		OR	i0l,i0l,r2
  10248c:	00 0c af ed 		MOVE	r1,r0
  102490:	00 0e ed bf 		MUL	r1,#0x40
  102494:	00 0c af de 		MOVE	r0,r1
  102498:	00 0e ad ff 		MOVE	r1,#0x0
  10249c:	00 0e 2e fe 		AND	r0,#0x1
  1024a0:	00 0e ad ff 		MOVE	r1,#0x0
  1024a4:	00 0c bd 11 		OR	i0h,i0h,r1
  1024a8:	00 0c be 00 		OR	i0l,i0l,r0
  1024ac:	00 0e 11 fa 		CMP	i0h,#0x5
  1024b0:	00 32 f6 d1 		JNE	0x092e		; 1024b8 <MeasureBattery+0x164>
  1024b4:	00 0e 10 30 		CMP	i0l,#0xcf
  1024b8:	00 34 f6 ba 		JLE	0x0945		; 102514 <MeasureBattery+0x1c0>
  1024bc:	00 0c c0 0c 		ADD	r2,i0l,i0l
  1024c0:	00 0c d1 1b 		ADDC	r3,i0h,i0h
  1024c4:	00 0c c0 cc 		ADD	r2,r2,i0l
  1024c8:	00 0c d1 bb 		ADDC	r3,r3,i0h
  1024cc:	00 0e ec fb 		MUL	r2,#0x4
  1024d0:	00 03 7f ff 		MOVE	-(i3,1),a
  1024d4:	00 0e eb fb 		MUL	r3,#0x4
  1024d8:	00 0c bf cb 		OR	r3,r2,a
  1024dc:	00 16 ac 01 		MOVE	r2,(i3,1)+
  1024e0:	00 0c c0 cc 		ADD	r2,r2,i0l
  1024e4:	00 0c d1 bb 		ADDC	r3,r3,i0h
  1024e8:	00 0e af 9b 		MOVE	a,#0x64
  1024ec:	00 03 7f ff 		MOVE	-(i3,1),a
  1024f0:	00 0e af ff 		MOVE	a,#0x0
  1024f4:	00 03 7f ff 		MOVE	-(i3,1),a
  1024f8:	00 0c af ce 		MOVE	r0,r2
  1024fc:	00 0c af bd 		MOVE	r1,r3
  102500:	00 39 eb dd 		CALL	0x1422		; 105088 <udivmodhi4>
  102504:	00 16 af 02 		MOVE	a,(i3,2)+
  102508:	00 0e c0 63 		ADD	i0l,#0x9c
  10250c:	00 0d 5f 11 		INCC	i0h,i0h
  102510:	00 33 f6 4a 		JUMP	0x09b5		; 1026d4 <MeasureBattery+0x380>
  102514:	00 0e 11 fa 		CMP	i0h,#0x5
  102518:	00 32 f6 b7 		JNE	0x0948		; 102520 <MeasureBattery+0x1cc>
  10251c:	00 0e 10 d8 		CMP	i0l,#0x27
  102520:	00 34 f6 9b 		JLE	0x0964		; 102590 <MeasureBattery+0x23c>
  102524:	00 0c af 1b 		MOVE	r3,i0h
  102528:	00 0c af 0c 		MOVE	r2,i0l
  10252c:	00 0e ec fb 		MUL	r2,#0x4
  102530:	00 03 7f ff 		MOVE	-(i3,1),a
  102534:	00 0e eb fb 		MUL	r3,#0x4
  102538:	00 0c bf cb 		OR	r3,r2,a
  10253c:	00 16 ac 01 		MOVE	r2,(i3,1)+
  102540:	00 0c af ce 		MOVE	r0,r2
  102544:	00 0c af bd 		MOVE	r1,r3
  102548:	00 0e ee fb 		MUL	r0,#0x4
  10254c:	00 03 7f ff 		MOVE	-(i3,1),a
  102550:	00 0e ed fb 		MUL	r1,#0x4
  102554:	00 0c bf ed 		OR	r1,r0,a
  102558:	00 16 ae 01 		MOVE	r0,(i3,1)+
  10255c:	00 0c ce cc 		ADD	r2,r2,r0
  102560:	00 0c dd bb 		ADDC	r3,r3,r1
  102564:	00 0e af 9b 		MOVE	a,#0x64
  102568:	00 03 7f ff 		MOVE	-(i3,1),a
  10256c:	00 0e af ff 		MOVE	a,#0x0
  102570:	00 03 7f ff 		MOVE	-(i3,1),a
  102574:	00 0c af ce 		MOVE	r0,r2
  102578:	00 0c af bd 		MOVE	r1,r3
  10257c:	00 39 eb dd 		CALL	0x1422		; 105088 <udivmodhi4>
  102580:	00 16 af 02 		MOVE	a,(i3,2)+
  102584:	00 0e c0 fb 		ADD	i0l,#0x4
  102588:	00 0e d1 fe 		ADDC	i0h,#0x1
  10258c:	00 33 f6 4a 		JUMP	0x09b5		; 1026d4 <MeasureBattery+0x380>
  102590:	00 0e 11 fb 		CMP	i0h,#0x4
  102594:	00 32 f6 98 		JNE	0x0967		; 10259c <MeasureBattery+0x248>
  102598:	00 0e 10 eb 		CMP	i0l,#0x14
  10259c:	00 34 f6 7c 		JLE	0x0983		; 10260c <MeasureBattery+0x2b8>
  1025a0:	00 0c af 1b 		MOVE	r3,i0h
  1025a4:	00 0c af 0c 		MOVE	r2,i0l
  1025a8:	00 0e ec fb 		MUL	r2,#0x4
  1025ac:	00 03 7f ff 		MOVE	-(i3,1),a
  1025b0:	00 0e eb fb 		MUL	r3,#0x4
  1025b4:	00 0c bf cb 		OR	r3,r2,a
  1025b8:	00 16 ac 01 		MOVE	r2,(i3,1)+
  1025bc:	00 0c af ce 		MOVE	r0,r2
  1025c0:	00 0c af bd 		MOVE	r1,r3
  1025c4:	00 0e ee f7 		MUL	r0,#0x8
  1025c8:	00 03 7f ff 		MOVE	-(i3,1),a
  1025cc:	00 0e ed f7 		MUL	r1,#0x8
  1025d0:	00 0c bf ed 		OR	r1,r0,a
  1025d4:	00 16 ae 01 		MOVE	r0,(i3,1)+
  1025d8:	00 0c 4c ec 		SUBD	r2,r0,r2
  1025dc:	00 0c 5b db 		SUBDC	r3,r1,r3
  1025e0:	00 0e af 9b 		MOVE	a,#0x64
  1025e4:	00 03 7f ff 		MOVE	-(i3,1),a
  1025e8:	00 0e af ff 		MOVE	a,#0x0
  1025ec:	00 03 7f ff 		MOVE	-(i3,1),a
  1025f0:	00 0c af ce 		MOVE	r0,r2
  1025f4:	00 0c af bd 		MOVE	r1,r3
  1025f8:	00 39 eb dd 		CALL	0x1422		; 105088 <udivmodhi4>
  1025fc:	00 16 af 02 		MOVE	a,(i3,2)+
  102600:	00 0e c0 92 		ADD	i0l,#0x6d
  102604:	00 0e d1 fe 		ADDC	i0h,#0x1
  102608:	00 33 f6 4a 		JUMP	0x09b5		; 1026d4 <MeasureBattery+0x380>
  10260c:	00 0e 11 fd 		CMP	i0h,#0x2
  102610:	00 32 f6 79 		JNE	0x0986		; 102618 <MeasureBattery+0x2c4>
  102614:	00 0e 10 39 		CMP	i0l,#0xc6
  102618:	00 34 f6 5d 		JLE	0x09a2		; 102688 <MeasureBattery+0x334>
  10261c:	00 0c af 1b 		MOVE	r3,i0h
  102620:	00 0c af 0c 		MOVE	r2,i0l
  102624:	00 0e ec fb 		MUL	r2,#0x4
  102628:	00 03 7f ff 		MOVE	-(i3,1),a
  10262c:	00 0e eb fb 		MUL	r3,#0x4
  102630:	00 0c bf cb 		OR	r3,r2,a
  102634:	00 16 ac 01 		MOVE	r2,(i3,1)+
  102638:	00 0c af ce 		MOVE	r0,r2
  10263c:	00 0c af bd 		MOVE	r1,r3
  102640:	00 0e ee f7 		MUL	r0,#0x8
  102644:	00 03 7f ff 		MOVE	-(i3,1),a
  102648:	00 0e ed f7 		MUL	r1,#0x8
  10264c:	00 0c bf ed 		OR	r1,r0,a
  102650:	00 16 ae 01 		MOVE	r0,(i3,1)+
  102654:	00 0c ce cc 		ADD	r2,r2,r0
  102658:	00 0c dd bb 		ADDC	r3,r3,r1
  10265c:	00 0e af 9b 		MOVE	a,#0x64
  102660:	00 03 7f ff 		MOVE	-(i3,1),a
  102664:	00 0e af ff 		MOVE	a,#0x0
  102668:	00 03 7f ff 		MOVE	-(i3,1),a
  10266c:	00 0c af ce 		MOVE	r0,r2
  102670:	00 0c af bd 		MOVE	r1,r3
  102674:	00 39 eb dd 		CALL	0x1422		; 105088 <udivmodhi4>
  102678:	00 16 af 02 		MOVE	a,(i3,2)+
  10267c:	00 0e c0 3e 		ADD	i0l,#0xc1
  102680:	00 0e d1 fe 		ADDC	i0h,#0x1
  102684:	00 33 f6 4a 		JUMP	0x09b5		; 1026d4 <MeasureBattery+0x380>
  102688:	00 0c c0 0c 		ADD	r2,i0l,i0l
  10268c:	00 0c d1 1b 		ADDC	r3,i0h,i0h
  102690:	00 0c c0 cc 		ADD	r2,r2,i0l
  102694:	00 0c d1 bb 		ADDC	r3,r3,i0h
  102698:	00 0e ec ef 		MUL	r2,#0x10
  10269c:	00 03 7f ff 		MOVE	-(i3,1),a
  1026a0:	00 0e eb ef 		MUL	r3,#0x10
  1026a4:	00 0c bf cb 		OR	r3,r2,a
  1026a8:	00 16 ac 01 		MOVE	r2,(i3,1)+
  1026ac:	00 0e af 9b 		MOVE	a,#0x64
  1026b0:	00 03 7f ff 		MOVE	-(i3,1),a
  1026b4:	00 0e af ff 		MOVE	a,#0x0
  1026b8:	00 03 7f ff 		MOVE	-(i3,1),a
  1026bc:	00 0c af ce 		MOVE	r0,r2
  1026c0:	00 0c af bd 		MOVE	r1,r3
  1026c4:	00 39 eb dd 		CALL	0x1422		; 105088 <udivmodhi4>
  1026c8:	00 16 af 02 		MOVE	a,(i3,2)+
  1026cc:	00 0e c0 e8 		ADD	i0l,#0x17
  1026d0:	00 0e d1 fd 		ADDC	i0h,#0x2
  1026d4:	00 0c 4e 00 		SUBD	i0l,i0l,r0
  1026d8:	00 0c 5d 11 		SUBDC	i0h,i0h,r1
  1026dc:	00 0c af 1b 		MOVE	r3,i0h
  1026e0:	00 0c af 0c 		MOVE	r2,i0l
  1026e4:	00 0e ec fb 		MUL	r2,#0x4
  1026e8:	00 03 7f ff 		MOVE	-(i3,1),a
  1026ec:	00 0e eb fb 		MUL	r3,#0x4
  1026f0:	00 0c bf cb 		OR	r3,r2,a
  1026f4:	00 16 ac 01 		MOVE	r2,(i3,1)+
  1026f8:	00 0c af ce 		MOVE	r0,r2
  1026fc:	00 0c af bd 		MOVE	r1,r3
  102700:	00 0e ee fb 		MUL	r0,#0x4
  102704:	00 03 7f ff 		MOVE	-(i3,1),a
  102708:	00 0e ed fb 		MUL	r1,#0x4
  10270c:	00 0c bf ed 		OR	r1,r0,a
  102710:	00 16 ae 01 		MOVE	r0,(i3,1)+
  102714:	00 0c ce cc 		ADD	r2,r2,r0
  102718:	00 0c dd bb 		ADDC	r3,r3,r1
  10271c:	00 0e af f5 		MOVE	a,#0xa
  102720:	00 03 7f ff 		MOVE	-(i3,1),a
  102724:	00 0e af ff 		MOVE	a,#0x0
  102728:	00 03 7f ff 		MOVE	-(i3,1),a
  10272c:	00 0c af ce 		MOVE	r0,r2
  102730:	00 0c af bd 		MOVE	r1,r3
  102734:	00 39 eb dd 		CALL	0x1422		; 105088 <udivmodhi4>
  102738:	00 16 af 02 		MOVE	a,(i3,2)+
  10273c:	00 0c af e2 		MOVE	i1l,r0
  102740:	00 0c af d3 		MOVE	i1h,r1
  102744:	00 0c c0 0c 		ADD	r2,i0l,i0l
  102748:	00 0c d1 1b 		ADDC	r3,i0h,i0h
  10274c:	00 0c af ce 		MOVE	r0,r2
  102750:	00 0c af bd 		MOVE	r1,r3
  102754:	00 0e ee f7 		MUL	r0,#0x8
  102758:	00 03 7f ff 		MOVE	-(i3,1),a
  10275c:	00 0e ed f7 		MUL	r1,#0x8
  102760:	00 0c bf ed 		OR	r1,r0,a
  102764:	00 16 ae 01 		MOVE	r0,(i3,1)+
  102768:	00 0c ce cc 		ADD	r2,r2,r0
  10276c:	00 0c dd bb 		ADDC	r3,r3,r1
  102770:	00 0c c0 c0 		ADD	i0l,r2,i0l
  102774:	00 0c d1 b1 		ADDC	i0h,r3,i0h
  102778:	00 0e af f5 		MOVE	a,#0xa
  10277c:	00 03 7f ff 		MOVE	-(i3,1),a
  102780:	00 0e af ff 		MOVE	a,#0x0
  102784:	00 03 7f ff 		MOVE	-(i3,1),a
  102788:	00 0c af 1d 		MOVE	r1,i0h
  10278c:	00 0c af 0e 		MOVE	r0,i0l
  102790:	00 39 eb dd 		CALL	0x1422		; 105088 <udivmodhi4>
  102794:	00 16 af 02 		MOVE	a,(i3,2)+
  102798:	00 0c ce 20 		ADD	i0l,i1l,r0
  10279c:	00 0c dd 31 		ADDC	i0h,i1h,r1
  1027a0:	00 0e c0 dc 		ADD	i0l,#0x23
  1027a4:	00 0d 5f 11 		INCC	i0h,i0h
  1027a8:	00 0d 6f 11 		SHR	i0h,i0h
  1027ac:	00 0d 4f 00 		SHRC	i0l,i0l
  1027b0:	00 01 b1 5a 		MOVE	0xa5,i0h	; a5 <mBatteryMilliVolt>
  1027b4:	00 01 b0 59 		MOVE	0xa6,i0l	; a6 <mBatteryMilliVolt+0x1>
  1027b8:	00 0e c0 cd 		ADD	i0l,#0x32
  1027bc:	00 0d 5f 11 		INCC	i0h,i0h
  1027c0:	00 0e af 17 		MOVE	a,#0xe8
  1027c4:	00 03 7f ff 		MOVE	-(i3,1),a
  1027c8:	00 0e af fc 		MOVE	a,#0x3
  1027cc:	00 03 7f ff 		MOVE	-(i3,1),a
  1027d0:	00 0c af 1d 		MOVE	r1,i0h
  1027d4:	00 0c af 0e 		MOVE	r0,i0l
  1027d8:	00 39 eb dd 		CALL	0x1422		; 105088 <udivmodhi4>
  1027dc:	00 16 af 02 		MOVE	a,(i3,2)+
  1027e0:	00 0c af e2 		MOVE	i1l,r0
  1027e4:	00 0c af d3 		MOVE	i1h,r1
  1027e8:	00 0e e2 ef 		MUL	i1l,#0x10
  1027ec:	00 03 7f ff 		MOVE	-(i3,1),a
  1027f0:	00 0e e3 ef 		MUL	i1h,#0x10
  1027f4:	00 0c bf 23 		OR	i1h,i1l,a
  1027f8:	00 16 a2 01 		MOVE	i1l,(i3,1)+
  1027fc:	00 0e ac 17 		MOVE	r2,#0xe8
  102800:	00 0e ab fc 		MOVE	r3,#0x3
  102804:	00 39 ec 23 		CALL	0x13dc		; 104f70 <mulhi3>
  102808:	00 0c 4e 0c 		SUBD	r2,i0l,r0
  10280c:	00 0c 5d 1b 		SUBDC	r3,i0h,r1
  102810:	00 0e af 9b 		MOVE	a,#0x64
  102814:	00 03 7f ff 		MOVE	-(i3,1),a
  102818:	00 0e af ff 		MOVE	a,#0x0
  10281c:	00 03 7f ff 		MOVE	-(i3,1),a
  102820:	00 0c af ce 		MOVE	r0,r2
  102824:	00 0c af bd 		MOVE	r1,r3
  102828:	00 39 eb dd 		CALL	0x1422		; 105088 <udivmodhi4>
  10282c:	00 16 af 02 		MOVE	a,(i3,2)+
  102830:	00 0c b3 db 		OR	r3,r1,i1h
  102834:	00 0c b2 ec 		OR	r2,r0,i1l
  102838:	00 16 af 02 		MOVE	a,(i3,2)+
  10283c:	00 16 a9 01 		MOVE	iph,(i3,1)+
  102840:	00 16 a8 01 		MOVE	ipl,(i3,1)+
  102844:	00 23 ff ff 		JUMP	ip

00102848 <GetBatteryLife>:
GetBatteryLife():
  102848:	00 03 78 ff 		MOVE	-(i3,1),ipl
  10284c:	00 03 79 ff 		MOVE	-(i3,1),iph
  102850:	00 16 af f8 		MOVE	a,-(i3,8)
  102854:	00 02 fb 00 		MOVE	(i3,0),r3
  102858:	00 02 fc 01 		MOVE	(i3,1),r2
  10285c:	00 02 fd 02 		MOVE	(i3,2),r1
  102860:	00 02 fe 03 		MOVE	(i3,3),r0
  102864:	00 3a f7 b8 		CALLS	0x0847		; 10211c <GetPowerFromMode>
  102868:	00 0c af c0 		MOVE	i0l,r2
  10286c:	00 0e a1 ff 		MOVE	i0h,#0x0
  102870:	00 0e c0 f9 		ADD	i0l,#0x6
  102874:	00 0e d1 91 		ADDC	i0h,#0x6e
  102878:	00 18 ab 00 		MOVE	r3,(i0,0)
  10287c:	00 04 ae 0e 		MOVE	r0,0xf1	; f1 <beaconMode+0x1>
  102880:	00 04 ad 0f 		MOVE	r1,0xf0	; f0 <beaconMode>
  102884:	00 0d 6f d9 		SHR	iph,r1
  102888:	00 0d 4f e8 		SHRC	ipl,r0
  10288c:	00 0d 6f 99 		SHR	iph,iph
  102890:	00 0d 4f 88 		SHRC	ipl,ipl
  102894:	00 0e 28 fe 		AND	ipl,#0x1
  102898:	00 0c af 89 		MOVE	iph,ipl
  10289c:	00 0c af e0 		MOVE	i0l,r0
  1028a0:	00 0e 20 fd 		AND	i0l,#0x2
  1028a4:	00 0e a1 ff 		MOVE	i0h,#0x0
  1028a8:	00 0c b0 1f 		OR	a,i0h,i0l
  1028ac:	00 36 f5 d2 		JZS	0x0a2d		; 1028b4 <GetBatteryLife+0x6c>
  1028b0:	00 0d 1f 99 		INC	iph,iph
  1028b4:	00 0e 2e fe 		AND	r0,#0x1
  1028b8:	00 0e ad ff 		MOVE	r1,#0x0
  1028bc:	00 0c be df 		OR	a,r1,r0
  1028c0:	00 36 f5 cd 		JZS	0x0a32		; 1028c8 <GetBatteryLife+0x80>
  1028c4:	00 0d 1f 99 		INC	iph,iph
  1028c8:	00 0c af be 		MOVE	r0,r3
  1028cc:	00 0e ad ff 		MOVE	r1,#0x0
  1028d0:	00 0c af fc 		MOVE	r2,a
  1028d4:	00 0c af fb 		MOVE	r3,a
  1028d8:	00 03 7e ff 		MOVE	-(i3,1),r0
  1028dc:	00 03 7d ff 		MOVE	-(i3,1),r1
  1028e0:	00 03 7c ff 		MOVE	-(i3,1),r2
  1028e4:	00 03 7b ff 		MOVE	-(i3,1),r3
  1028e8:	00 0e af ef 		MOVE	a,#0x10
  1028ec:	00 03 7f ff 		MOVE	-(i3,1),a
  1028f0:	00 0e af d8 		MOVE	a,#0x27
  1028f4:	00 03 7f ff 		MOVE	-(i3,1),a
  1028f8:	00 0e af ff 		MOVE	a,#0x0
  1028fc:	00 03 7f ff 		MOVE	-(i3,1),a
  102900:	00 0e af ff 		MOVE	a,#0x0
  102904:	00 03 7f ff 		MOVE	-(i3,1),a
  102908:	00 39 ec 03 		CALL	0x13fc		; 104ff0 <mulsi3>
  10290c:	00 16 af 08 		MOVE	a,(i3,8)+
  102910:	00 0c af 90 		MOVE	i0l,iph
  102914:	00 0e a1 ff 		MOVE	i0h,#0x0
  102918:	00 0c af f8 		MOVE	ipl,a
  10291c:	00 0c af f9 		MOVE	iph,a
  102920:	00 03 70 ff 		MOVE	-(i3,1),i0l
  102924:	00 03 71 ff 		MOVE	-(i3,1),i0h
  102928:	00 03 78 ff 		MOVE	-(i3,1),ipl
  10292c:	00 03 79 ff 		MOVE	-(i3,1),iph
  102930:	00 39 eb c1 		CALL	0x143e		; 1050f8 <udivmodsi4>
  102934:	00 16 af 04 		MOVE	a,(i3,4)+
  102938:	00 0c af e0 		MOVE	i0l,r0
  10293c:	00 0c af d1 		MOVE	i0h,r1
  102940:	00 0c af c8 		MOVE	ipl,r2
  102944:	00 0c af b9 		MOVE	iph,r3
  102948:	00 0e af 9b 		MOVE	a,#0x64
  10294c:	00 03 7f ff 		MOVE	-(i3,1),a
  102950:	00 0e af ff 		MOVE	a,#0x0
  102954:	00 03 7f ff 		MOVE	-(i3,1),a
  102958:	00 0e af ff 		MOVE	a,#0x0
  10295c:	00 03 7f ff 		MOVE	-(i3,1),a
  102960:	00 0e af ff 		MOVE	a,#0x0
  102964:	00 03 7f ff 		MOVE	-(i3,1),a
  102968:	00 1e ae 07 		MOVE	r0,(i3,7)
  10296c:	00 1e ad 06 		MOVE	r1,(i3,6)
  102970:	00 1e ac 05 		MOVE	r2,(i3,5)
  102974:	00 1e ab 04 		MOVE	r3,(i3,4)
  102978:	00 39 eb c1 		CALL	0x143e		; 1050f8 <udivmodsi4>
  10297c:	00 16 af 01 		MOVE	a,(i3,1)+
  102980:	00 02 ff 03 		MOVE	(i3,3),a
  102984:	00 16 af 01 		MOVE	a,(i3,1)+
  102988:	00 02 ff 03 		MOVE	(i3,3),a
  10298c:	00 16 af 01 		MOVE	a,(i3,1)+
  102990:	00 02 ff 03 		MOVE	(i3,3),a
  102994:	00 16 af 01 		MOVE	a,(i3,1)+
  102998:	00 02 ff 03 		MOVE	(i3,3),a
  10299c:	00 0c 4e 0f 		SUBD	a,i0l,r0
  1029a0:	00 02 ff 03 		MOVE	(i3,3),a
  1029a4:	00 0c 5d 1f 		SUBDC	a,i0h,r1
  1029a8:	00 02 ff 02 		MOVE	(i3,2),a
  1029ac:	00 0c 5c 8f 		SUBDC	a,ipl,r2
  1029b0:	00 02 ff 01 		MOVE	(i3,1),a
  1029b4:	00 0c 5b 9f 		SUBDC	a,iph,r3
  1029b8:	00 02 ff 00 		MOVE	(i3,0),a
  1029bc:	00 1e ae 03 		MOVE	r0,(i3,3)
  1029c0:	00 1e ad 02 		MOVE	r1,(i3,2)
  1029c4:	00 1e ac 01 		MOVE	r2,(i3,1)
  1029c8:	00 1e ab 00 		MOVE	r3,(i3,0)
  1029cc:	00 1e ce 03 		ADD	r0,(i3,3)
  1029d0:	00 1e dd 02 		ADDC	r1,(i3,2)
  1029d4:	00 1e dc 01 		ADDC	r2,(i3,1)
  1029d8:	00 1e db 00 		ADDC	r3,(i3,0)
  1029dc:	00 0c af ef 		MOVE	a,r0
  1029e0:	00 1e cf 03 		ADD	a,(i3,3)
  1029e4:	00 02 ff 07 		MOVE	(i3,7),a
  1029e8:	00 0c af df 		MOVE	a,r1
  1029ec:	00 1e df 02 		ADDC	a,(i3,2)
  1029f0:	00 02 ff 06 		MOVE	(i3,6),a
  1029f4:	00 0c af cf 		MOVE	a,r2
  1029f8:	00 1e df 01 		ADDC	a,(i3,1)
  1029fc:	00 02 ff 05 		MOVE	(i3,5),a
  102a00:	00 0c af bf 		MOVE	a,r3
  102a04:	00 1e df 00 		ADDC	a,(i3,0)
  102a08:	00 02 ff 04 		MOVE	(i3,4),a
  102a0c:	00 1f ae 07 		SHL	r0,(i3,7)
  102a10:	00 1f ed 06 		SHLC	r1,(i3,6)
  102a14:	00 1f ec 05 		SHLC	r2,(i3,5)
  102a18:	00 1f eb 04 		SHLC	r3,(i3,4)
  102a1c:	00 03 71 ff 		MOVE	-(i3,1),i0h
  102a20:	00 0c af b1 		MOVE	i0h,r3
  102a24:	00 0c af cb 		MOVE	r3,r2
  102a28:	00 0c af dc 		MOVE	r2,r1
  102a2c:	00 0c af ed 		MOVE	r1,r0
  102a30:	00 0e ed ef 		MUL	r1,#0x10
  102a34:	00 0c af fe 		MOVE	r0,a
  102a38:	00 0e ec ef 		MUL	r2,#0x10
  102a3c:	00 0c bd fd 		OR	r1,a,r1
  102a40:	00 0e eb ef 		MUL	r3,#0x10
  102a44:	00 0c bc fc 		OR	r2,a,r2
  102a48:	00 0e e1 ef 		MUL	i0h,#0x10
  102a4c:	00 0c bb fb 		OR	r3,a,r3
  102a50:	00 16 a1 01 		MOVE	i0h,(i3,1)+
  102a54:	00 1e ce 07 		ADD	r0,(i3,7)
  102a58:	00 1e dd 06 		ADDC	r1,(i3,6)
  102a5c:	00 1e dc 05 		ADDC	r2,(i3,5)
  102a60:	00 1e db 04 		ADDC	r3,(i3,4)
  102a64:	00 1e ce 03 		ADD	r0,(i3,3)
  102a68:	00 1e dd 02 		ADDC	r1,(i3,2)
  102a6c:	00 1e dc 01 		ADDC	r2,(i3,1)
  102a70:	00 1e db 00 		ADDC	r3,(i3,0)
  102a74:	00 03 70 ff 		MOVE	-(i3,1),i0l
  102a78:	00 03 71 ff 		MOVE	-(i3,1),i0h
  102a7c:	00 03 78 ff 		MOVE	-(i3,1),ipl
  102a80:	00 03 79 ff 		MOVE	-(i3,1),iph
  102a84:	00 39 eb c1 		CALL	0x143e		; 1050f8 <udivmodsi4>
  102a88:	00 16 a9 01 		MOVE	iph,(i3,1)+
  102a8c:	00 16 a8 01 		MOVE	ipl,(i3,1)+
  102a90:	00 16 a1 01 		MOVE	i0h,(i3,1)+
  102a94:	00 16 a0 01 		MOVE	i0l,(i3,1)+
  102a98:	00 0c af ec 		MOVE	r2,r0
  102a9c:	00 16 af 08 		MOVE	a,(i3,8)+
  102aa0:	00 16 a9 01 		MOVE	iph,(i3,1)+
  102aa4:	00 16 a8 01 		MOVE	ipl,(i3,1)+
  102aa8:	00 23 ff ff 		JUMP	ip

00102aac <InitChip>:
InitChip():
  102aac:	00 03 78 ff 		MOVE	-(i3,1),ipl
  102ab0:	00 03 79 ff 		MOVE	-(i3,1),iph
  102ab4:	00 00 35 91 		MOVE	0x6e,#0xca	; 6e <RegWDKey>
  102ab8:	00 04 ab 92 		MOVE	r3,0x6d	; 6d <RegWDCfg>
  102abc:	00 0e bb 7f 		OR	r3,#0x80
  102ac0:	00 01 bb 92 		MOVE	0x6d,r3	; 6d <RegWDCfg>
  102ac4:	00 04 ab ff 		MOVE	r3,0x00	; 0 <RegSysCfg1>
  102ac8:	00 0e bb ef 		OR	r3,#0x10
  102acc:	00 01 bb ff 		MOVE	0x00,r3	; 0 <RegSysCfg1>
  102ad0:	00 04 ab fb 		MOVE	r3,0x04	; 4 <RegClockCfg2>
  102ad4:	00 0e 2b c0 		AND	r3,#0x3f
  102ad8:	00 0e bb bf 		OR	r3,#0x40
  102adc:	00 01 bb fb 		MOVE	0x04,r3	; 4 <RegClockCfg2>
  102ae0:	00 0e a1 fd 		MOVE	i0h,#0x2
  102ae4:	00 0e a0 5a 		MOVE	i0l,#0xa5
  102ae8:	00 18 ab 00 		MOVE	r3,(i0,0)
  102aec:	00 0c af bc 		MOVE	r2,r3
  102af0:	00 0e ab ff 		MOVE	r3,#0x0
  102af4:	00 0e 2c fd 		AND	r2,#0x2
  102af8:	00 0e ab ff 		MOVE	r3,#0x0
  102afc:	00 0c bc bf 		OR	a,r3,r2
  102b00:	00 32 f5 45 		JZC	0x0aba		; 102ae8 <InitChip+0x3c>
  102b04:	00 04 ab fc 		MOVE	r3,0x03	; 3 <RegClockCfg1>
  102b08:	00 0e 2b 30 		AND	r3,#0xcf
  102b0c:	00 0e bb ef 		OR	r3,#0x10
  102b10:	00 01 bb fc 		MOVE	0x03,r3	; 3 <RegClockCfg1>
  102b14:	00 04 ab fb 		MOVE	r3,0x04	; 4 <RegClockCfg2>
  102b18:	00 0e 2b 34 		AND	r3,#0xcb
  102b1c:	00 0e bb df 		OR	r3,#0x20
  102b20:	00 01 bb fb 		MOVE	0x04,r3	; 4 <RegClockCfg2>
  102b24:	00 0e a1 fd 		MOVE	i0h,#0x2
  102b28:	00 0e a0 5a 		MOVE	i0l,#0xa5
  102b2c:	00 18 ab 00 		MOVE	r3,(i0,0)
  102b30:	00 0c af bc 		MOVE	r2,r3
  102b34:	00 0e ab ff 		MOVE	r3,#0x0
  102b38:	00 0e 2c fb 		AND	r2,#0x4
  102b3c:	00 0e ab ff 		MOVE	r3,#0x0
  102b40:	00 0c bc bf 		OR	a,r3,r2
  102b44:	00 32 f5 34 		JZC	0x0acb		; 102b2c <InitChip+0x80>
  102b48:	00 04 ab fc 		MOVE	r3,0x03	; 3 <RegClockCfg1>
  102b4c:	00 0e 2b 0c 		AND	r3,#0xf3
  102b50:	00 0e bb f7 		OR	r3,#0x8
  102b54:	00 01 bb fc 		MOVE	0x03,r3	; 3 <RegClockCfg1>
  102b58:	00 04 ab fb 		MOVE	r3,0x04	; 4 <RegClockCfg2>
  102b5c:	00 0e 2b 0f 		AND	r3,#0xf0
  102b60:	00 01 bb fb 		MOVE	0x04,r3	; 4 <RegClockCfg2>
  102b64:	00 04 ab fa 		MOVE	r3,0x05	; 5 <RegClockCfg3>
  102b68:	00 0e 2b e0 		AND	r3,#0x1f
  102b6c:	00 01 bb fa 		MOVE	0x05,r3	; 5 <RegClockCfg3>
  102b70:	00 04 ab fa 		MOVE	r3,0x05	; 5 <RegClockCfg3>
  102b74:	00 0e 2b 1c 		AND	r3,#0xe3
  102b78:	00 0e bb ef 		OR	r3,#0x10
  102b7c:	00 01 bb fa 		MOVE	0x05,r3	; 5 <RegClockCfg3>
  102b80:	00 00 bf f8 		MOVE	0x07,#0x40	; 7 <RegPrescCfg>
  102b84:	00 3a f7 80 		CALLS	0x087f		; 1021fc <SetupGPIODefaults>
  102b88:	00 0e ae 00 		MOVE	r0,#0xff
  102b8c:	00 0e ad 00 		MOVE	r1,#0xff
  102b90:	00 0e ac 00 		MOVE	r2,#0xff
  102b94:	00 0e ab ff 		MOVE	r3,#0x0
  102b98:	00 3a f8 98 		CALLS	0x0767		; 101d9c <InitSleepCounter>
  102b9c:	00 0e ac b9 		MOVE	r2,#0x46
  102ba0:	00 0e ab ff 		MOVE	r3,#0x0
  102ba4:	00 3a f8 30 		CALLS	0x07cf		; 101f3c <WaitNmSec>
  102ba8:	00 00 ff 5b 		MOVE	0xa4,#0x00	; a4 <em9301PowerState>
  102bac:	00 04 ab a9 		MOVE	r3,0x56	; 56 <RegADCCfg2>
  102bb0:	00 0e 2b f0 		AND	r3,#0xf
  102bb4:	00 01 bb a9 		MOVE	0x56,r3	; 56 <RegADCCfg2>
  102bb8:	00 04 ab aa 		MOVE	r3,0x55	; 55 <RegADCCfg1>
  102bbc:	00 0e 2b 0e 		AND	r3,#0xf1
  102bc0:	00 0e bb f5 		OR	r3,#0xa
  102bc4:	00 01 bb aa 		MOVE	0x55,r3	; 55 <RegADCCfg1>
  102bc8:	00 04 ab a9 		MOVE	r3,0x56	; 56 <RegADCCfg2>
  102bcc:	00 0e bb f7 		OR	r3,#0x8
  102bd0:	00 01 bb a9 		MOVE	0x56,r3	; 56 <RegADCCfg2>
  102bd4:	00 0e ac cd 		MOVE	r2,#0x32
  102bd8:	00 0e ab ff 		MOVE	r3,#0x0
  102bdc:	00 3a f8 30 		CALLS	0x07cf		; 101f3c <WaitNmSec>
  102be0:	00 3a f7 2a 		CALLS	0x08d5		; 102354 <MeasureBattery>
  102be4:	00 0e a1 fe 		MOVE	i0h,#0x1
  102be8:	00 0e a0 7d 		MOVE	i0l,#0x82
  102bec:	00 02 cc 1c 		MOVE	(i0,28),r2
  102bf0:	00 16 a9 01 		MOVE	iph,(i3,1)+
  102bf4:	00 16 a8 01 		MOVE	ipl,(i3,1)+
  102bf8:	00 23 ff ff 		JUMP	ip

00102bfc <InitMISO>:
InitMISO():
  102bfc:	00 04 ab e6 		MOVE	r3,0x19	; 19 <RegPBOE>
  102c00:	00 0e 2b 20 		AND	r3,#0xdf
  102c04:	00 01 bb e6 		MOVE	0x19,r3	; 19 <RegPBOE>
  102c08:	00 04 ab e7 		MOVE	r3,0x18	; 18 <RegPBInpE>
  102c0c:	00 0e bb df 		OR	r3,#0x20
  102c10:	00 01 bb e7 		MOVE	0x18,r3	; 18 <RegPBInpE>
  102c14:	00 04 ab e5 		MOVE	r3,0x1a	; 1a <RegPBPU>
  102c18:	00 0e bb df 		OR	r3,#0x20
  102c1c:	00 01 bb e5 		MOVE	0x1a,r3	; 1a <RegPBPU>
  102c20:	00 04 ab 84 		MOVE	r3,0x7b	; 7b <RegSPICfg2>
  102c24:	00 0e bb c7 		OR	r3,#0x38
  102c28:	00 01 bb 84 		MOVE	0x7b,r3	; 7b <RegSPICfg2>
  102c2c:	00 23 ff ff 		JUMP	ip

00102c30 <SetupDCDC>:
SetupDCDC():
  102c30:	00 23 ff ff 		JUMP	ip

00102c34 <InitBoard>:
InitBoard():
  102c34:	00 03 78 ff 		MOVE	-(i3,1),ipl
  102c38:	00 03 79 ff 		MOVE	-(i3,1),iph
  102c3c:	00 04 ab 95 		MOVE	r3,0x6a	; 6a <RegIntPortSrc>
  102c40:	00 0e 2b 0a 		AND	r3,#0xf5
  102c44:	00 01 bb 95 		MOVE	0x6a,r3	; 6a <RegIntPortSrc>
  102c48:	00 04 ab ea 		MOVE	r3,0x15	; 15 <RegPAIntEdg>
  102c4c:	00 0e bb f5 		OR	r3,#0xa
  102c50:	00 01 bb ea 		MOVE	0x15,r3	; 15 <RegPAIntEdg>
  102c54:	00 04 ab e6 		MOVE	r3,0x19	; 19 <RegPBOE>
  102c58:	00 0e 2b 01 		AND	r3,#0xfe
  102c5c:	00 01 bb e6 		MOVE	0x19,r3	; 19 <RegPBOE>
  102c60:	00 04 ab e7 		MOVE	r3,0x18	; 18 <RegPBInpE>
  102c64:	00 0e bb fe 		OR	r3,#0x1
  102c68:	00 01 bb e7 		MOVE	0x18,r3	; 18 <RegPBInpE>
  102c6c:	00 04 ab dd 		MOVE	r3,0x22	; 22 <RegPCOE>
  102c70:	00 0e 2b 40 		AND	r3,#0xbf
  102c74:	00 01 bb dd 		MOVE	0x22,r3	; 22 <RegPCOE>
  102c78:	00 04 ab de 		MOVE	r3,0x21	; 21 <RegPCInpE>
  102c7c:	00 0e bb bf 		OR	r3,#0x40
  102c80:	00 01 bb de 		MOVE	0x21,r3	; 21 <RegPCInpE>
  102c84:	00 04 ab d6 		MOVE	r3,0x29	; 29 <RegPCDebCfg2>
  102c88:	00 0e bb cf 		OR	r3,#0x30
  102c8c:	00 01 bb d6 		MOVE	0x29,r3	; 29 <RegPCDebCfg2>
  102c90:	00 04 ab e8 		MOVE	r3,0x17	; 17 <RegPBDOut>
  102c94:	00 0e bb fe 		OR	r3,#0x1
  102c98:	00 01 bb e8 		MOVE	0x17,r3	; 17 <RegPBDOut>
  102c9c:	00 04 ab df 		MOVE	r3,0x20	; 20 <RegPCDOut>
  102ca0:	00 0e bb bf 		OR	r3,#0x40
  102ca4:	00 01 bb df 		MOVE	0x20,r3	; 20 <RegPCDOut>
  102ca8:	00 04 ab e6 		MOVE	r3,0x19	; 19 <RegPBOE>
  102cac:	00 0e bb fe 		OR	r3,#0x1
  102cb0:	00 01 bb e6 		MOVE	0x19,r3	; 19 <RegPBOE>
  102cb4:	00 04 ab dd 		MOVE	r3,0x22	; 22 <RegPCOE>
  102cb8:	00 0e bb bf 		OR	r3,#0x40
  102cbc:	00 01 bb dd 		MOVE	0x22,r3	; 22 <RegPCOE>
  102cc0:	00 04 ab e3 		MOVE	r3,0x1c	; 1c <RegPBOD>
  102cc4:	00 0e bb fe 		OR	r3,#0x1
  102cc8:	00 01 bb e3 		MOVE	0x1c,r3	; 1c <RegPBOD>
  102ccc:	00 04 ab da 		MOVE	r3,0x25	; 25 <RegPCOD>
  102cd0:	00 0e bb bf 		OR	r3,#0x40
  102cd4:	00 01 bb da 		MOVE	0x25,r3	; 25 <RegPCOD>
  102cd8:	00 04 ab e5 		MOVE	r3,0x1a	; 1a <RegPBPU>
  102cdc:	00 0e 2b 01 		AND	r3,#0xfe
  102ce0:	00 01 bb e5 		MOVE	0x1a,r3	; 1a <RegPBPU>
  102ce4:	00 04 ab dc 		MOVE	r3,0x23	; 23 <RegPCPU>
  102ce8:	00 0e 2b 40 		AND	r3,#0xbf
  102cec:	00 01 bb dc 		MOVE	0x23,r3	; 23 <RegPCPU>
  102cf0:	00 04 ab f2 		MOVE	r3,0x0d	; d <RegPAOE>
  102cf4:	00 0e 2b 0c 		AND	r3,#0xf3
  102cf8:	00 01 bb f2 		MOVE	0x0d,r3	; d <RegPAOE>
  102cfc:	00 04 ab f3 		MOVE	r3,0x0c	; c <RegPAInpE>
  102d00:	00 0e bb f3 		OR	r3,#0xc
  102d04:	00 01 bb f3 		MOVE	0x0c,r3	; c <RegPAInpE>
  102d08:	00 04 ab f1 		MOVE	r3,0x0e	; e <RegPAPU>
  102d0c:	00 0e bb f7 		OR	r3,#0x8
  102d10:	00 01 bb f1 		MOVE	0x0e,r3	; e <RegPAPU>
  102d14:	00 04 ab ec 		MOVE	r3,0x13	; 13 <RegPADebCfg1>
  102d18:	00 0e bb cf 		OR	r3,#0x30
  102d1c:	00 01 bb ec 		MOVE	0x13,r3	; 13 <RegPADebCfg1>
  102d20:	00 04 ab e6 		MOVE	r3,0x19	; 19 <RegPBOE>
  102d24:	00 0e 2b 40 		AND	r3,#0xbf
  102d28:	00 01 bb e6 		MOVE	0x19,r3	; 19 <RegPBOE>
  102d2c:	00 04 ab e7 		MOVE	r3,0x18	; 18 <RegPBInpE>
  102d30:	00 0e bb bf 		OR	r3,#0x40
  102d34:	00 01 bb e7 		MOVE	0x18,r3	; 18 <RegPBInpE>
  102d38:	00 04 ab e6 		MOVE	r3,0x19	; 19 <RegPBOE>
  102d3c:	00 0e bb eb 		OR	r3,#0x14
  102d40:	00 01 bb e6 		MOVE	0x19,r3	; 19 <RegPBOE>
  102d44:	00 04 ab e8 		MOVE	r3,0x17	; 17 <RegPBDOut>
  102d48:	00 0e 2b 14 		AND	r3,#0xeb
  102d4c:	00 01 bb e8 		MOVE	0x17,r3	; 17 <RegPBDOut>
  102d50:	00 04 ab e2 		MOVE	r3,0x1d	; 1d <RegPBOutCfg0>
  102d54:	00 0e 2b 30 		AND	r3,#0xcf
  102d58:	00 0e bb ef 		OR	r3,#0x10
  102d5c:	00 01 bb e2 		MOVE	0x1d,r3	; 1d <RegPBOutCfg0>
  102d60:	00 04 ab e1 		MOVE	r3,0x1e	; 1e <RegPBOutCfg1>
  102d64:	00 0e 2b 03 		AND	r3,#0xfc
  102d68:	00 0e bb fe 		OR	r3,#0x1
  102d6c:	00 01 bb e1 		MOVE	0x1e,r3	; 1e <RegPBOutCfg1>
  102d70:	00 04 ab 85 		MOVE	r3,0x7a	; 7a <RegSPICfg1>
  102d74:	00 0e bb 8f 		OR	r3,#0x70
  102d78:	00 01 bb 85 		MOVE	0x7a,r3	; 7a <RegSPICfg1>
  102d7c:	00 04 ab 85 		MOVE	r3,0x7a	; 7a <RegSPICfg1>
  102d80:	00 0e bb f7 		OR	r3,#0x8
  102d84:	00 01 bb 85 		MOVE	0x7a,r3	; 7a <RegSPICfg1>
  102d88:	00 04 ab 85 		MOVE	r3,0x7a	; 7a <RegSPICfg1>
  102d8c:	00 0e 2b 04 		AND	r3,#0xfb
  102d90:	00 01 bb 85 		MOVE	0x7a,r3	; 7a <RegSPICfg1>
  102d94:	00 04 ab 85 		MOVE	r3,0x7a	; 7a <RegSPICfg1>
  102d98:	00 0e bb fd 		OR	r3,#0x2
  102d9c:	00 01 bb 85 		MOVE	0x7a,r3	; 7a <RegSPICfg1>
  102da0:	00 04 ab 85 		MOVE	r3,0x7a	; 7a <RegSPICfg1>
  102da4:	00 0e 2b 01 		AND	r3,#0xfe
  102da8:	00 01 bb 85 		MOVE	0x7a,r3	; 7a <RegSPICfg1>
  102dac:	00 04 ab 85 		MOVE	r3,0x7a	; 7a <RegSPICfg1>
  102db0:	00 0e bb 7f 		OR	r3,#0x80
  102db4:	00 01 bb 85 		MOVE	0x7a,r3	; 7a <RegSPICfg1>
  102db8:	00 04 ab f2 		MOVE	r3,0x0d	; d <RegPAOE>
  102dbc:	00 0e 2b 02 		AND	r3,#0xfd
  102dc0:	00 01 bb f2 		MOVE	0x0d,r3	; d <RegPAOE>
  102dc4:	00 04 ab f3 		MOVE	r3,0x0c	; c <RegPAInpE>
  102dc8:	00 0e bb fd 		OR	r3,#0x2
  102dcc:	00 01 bb f3 		MOVE	0x0c,r3	; c <RegPAInpE>
  102dd0:	00 3a f7 2d 		CALLS	0x08d2		; 102348 <MeasureLight>
  102dd4:	00 01 bb 2c 		MOVE	0xd3,r3	; d3 <lightReading>
  102dd8:	00 01 bc 2b 		MOVE	0xd4,r2	; d4 <lightReading+0x1>
  102ddc:	00 16 a9 01 		MOVE	iph,(i3,1)+
  102de0:	00 16 a8 01 		MOVE	ipl,(i3,1)+
  102de4:	00 23 ff ff 		JUMP	ip

00102de8 <SendData>:
SendData():
  102de8:	00 03 74 ff 		MOVE	-(i3,1),i2l
  102dec:	00 03 75 ff 		MOVE	-(i3,1),i2h
  102df0:	00 03 78 ff 		MOVE	-(i3,1),ipl
  102df4:	00 03 79 ff 		MOVE	-(i3,1),iph
  102df8:	00 16 af ff 		MOVE	a,-(i3,1)
  102dfc:	00 02 fc 00 		MOVE	(i3,0),r2
  102e00:	00 01 bb 47 		MOVE	0xb8,r3	; b8 <EM_Set_RF_Power+0x3>
  102e04:	00 0e ab fe 		MOVE	r3,#0x1
  102e08:	00 0e ac 8f 		MOVE	r2,#0x70
  102e0c:	00 3a fc 9a 		CALLS	0x0365		; 100d94 <HCI_LE_Send>
  102e10:	00 0e ab ff 		MOVE	r3,#0x0
  102e14:	00 0e ac 4a 		MOVE	r2,#0xb5
  102e18:	00 3a fc 9a 		CALLS	0x0365		; 100d94 <HCI_LE_Send>
  102e1c:	00 0e ab fe 		MOVE	r3,#0x1
  102e20:	00 0e ac 98 		MOVE	r2,#0x67
  102e24:	00 3a fc 9a 		CALLS	0x0365		; 100d94 <HCI_LE_Send>
  102e28:	00 3a fc b4 		CALLS	0x034b		; 100d2c <HCI_WaitCommandComplete>
  102e2c:	00 04 ac 39 		MOVE	r2,0xc6	; c6 <EM9301_FeatureSet>
  102e30:	00 0e ab ff 		MOVE	r3,#0x0
  102e34:	00 0e 2c f7 		AND	r2,#0x8
  102e38:	00 0e ab ff 		MOVE	r3,#0x0
  102e3c:	00 0c bc bf 		OR	a,r3,r2
  102e40:	00 36 f4 67 		JZS	0x0b98		; 102e60 <SendData+0x78>
  102e44:	00 04 ab f2 		MOVE	r3,0x0d	; d <RegPAOE>
  102e48:	00 0e 2b 40 		AND	r3,#0xbf
  102e4c:	00 01 bb f2 		MOVE	0x0d,r3	; d <RegPAOE>
  102e50:	00 04 ab f3 		MOVE	r3,0x0c	; c <RegPAInpE>
  102e54:	00 0e bb bf 		OR	r3,#0x40
  102e58:	00 01 bb f3 		MOVE	0x0c,r3	; c <RegPAInpE>
  102e5c:	00 3a fa 88 		CALLS	0x0577		; 1015dc <Enable9301ActivitySignal>
  102e60:	00 1e a4 00 		MOVE	i2l,(i3,0)
  102e64:	00 0e a5 ff 		MOVE	i2h,#0x0
  102e68:	00 0c af 4c 		MOVE	r2,i2l
  102e6c:	00 0e 2c fe 		AND	r2,#0x1
  102e70:	00 0e ab ff 		MOVE	r3,#0x0
  102e74:	00 0c bc bf 		OR	a,r3,r2
  102e78:	00 36 f4 52 		JZS	0x0bad		; 102eb4 <SendData+0xcc>
  102e7c:	00 0e ab fe 		MOVE	r3,#0x1
  102e80:	00 0e ac 7d 		MOVE	r2,#0x82
  102e84:	00 3a fc 9a 		CALLS	0x0365		; 100d94 <HCI_LE_Send>
  102e88:	00 3a fc 34 		CALLS	0x03cb		; 100f2c <SendAdvertisement>
  102e8c:	00 0e a1 fe 		MOVE	i0h,#0x1
  102e90:	00 0e a0 7d 		MOVE	i0l,#0x82
  102e94:	00 19 1f 20 		INC	a,(i0,32)
  102e98:	00 02 cf 20 		MOVE	(i0,32),a
  102e9c:	00 19 5f 1f 		INCC	a,(i0,31)
  102ea0:	00 02 cf 1f 		MOVE	(i0,31),a
  102ea4:	00 19 5f 1e 		INCC	a,(i0,30)
  102ea8:	00 02 cf 1e 		MOVE	(i0,30),a
  102eac:	00 19 5f 1d 		INCC	a,(i0,29)
  102eb0:	00 02 cf 1d 		MOVE	(i0,29),a
  102eb4:	00 0c af 4c 		MOVE	r2,i2l
  102eb8:	00 0e 2c fb 		AND	r2,#0x4
  102ebc:	00 0e ab ff 		MOVE	r3,#0x0
  102ec0:	00 0c bc bf 		OR	a,r3,r2
  102ec4:	00 36 f4 40 		JZS	0x0bbf		; 102efc <SendData+0x114>
  102ec8:	00 3a fe 81 		CALLS	0x017e		; 1005f8 <GetAltBcnPacketRef>
  102ecc:	00 3a fc 9a 		CALLS	0x0365		; 100d94 <HCI_LE_Send>
  102ed0:	00 3a fc 34 		CALLS	0x03cb		; 100f2c <SendAdvertisement>
  102ed4:	00 0e a1 fe 		MOVE	i0h,#0x1
  102ed8:	00 0e a0 7d 		MOVE	i0l,#0x82
  102edc:	00 19 1f 20 		INC	a,(i0,32)
  102ee0:	00 02 cf 20 		MOVE	(i0,32),a
  102ee4:	00 19 5f 1f 		INCC	a,(i0,31)
  102ee8:	00 02 cf 1f 		MOVE	(i0,31),a
  102eec:	00 19 5f 1e 		INCC	a,(i0,30)
  102ef0:	00 02 cf 1e 		MOVE	(i0,30),a
  102ef4:	00 19 5f 1d 		INCC	a,(i0,29)
  102ef8:	00 02 cf 1d 		MOVE	(i0,29),a
  102efc:	00 0e 24 c7 		AND	i2l,#0x38
  102f00:	00 0e a5 ff 		MOVE	i2h,#0x0
  102f04:	00 0c b4 5f 		OR	a,i2h,i2l
  102f08:	00 36 f4 2e 		JZS	0x0bd1		; 102f44 <SendData+0x15c>
  102f0c:	00 1e ab 00 		MOVE	r3,(i3,0)
  102f10:	00 3a ee f2 		CALLS	0x110d		; 104434 <GetEddyStonePacketRef>
  102f14:	00 3a fc 9a 		CALLS	0x0365		; 100d94 <HCI_LE_Send>
  102f18:	00 3a fc 34 		CALLS	0x03cb		; 100f2c <SendAdvertisement>
  102f1c:	00 0e a1 fe 		MOVE	i0h,#0x1
  102f20:	00 0e a0 7d 		MOVE	i0l,#0x82
  102f24:	00 19 1f 20 		INC	a,(i0,32)
  102f28:	00 02 cf 20 		MOVE	(i0,32),a
  102f2c:	00 19 5f 1f 		INCC	a,(i0,31)
  102f30:	00 02 cf 1f 		MOVE	(i0,31),a
  102f34:	00 19 5f 1e 		INCC	a,(i0,30)
  102f38:	00 02 cf 1e 		MOVE	(i0,30),a
  102f3c:	00 19 5f 1d 		INCC	a,(i0,29)
  102f40:	00 02 cf 1d 		MOVE	(i0,29),a
  102f44:	00 16 af 01 		MOVE	a,(i3,1)+
  102f48:	00 16 a9 01 		MOVE	iph,(i3,1)+
  102f4c:	00 16 a8 01 		MOVE	ipl,(i3,1)+
  102f50:	00 16 a5 01 		MOVE	i2h,(i3,1)+
  102f54:	00 16 a4 01 		MOVE	i2l,(i3,1)+
  102f58:	00 23 ff ff 		JUMP	ip

00102f5c <UpdateDynamicPacketData>:
UpdateDynamicPacketData():
  102f5c:	00 03 74 ff 		MOVE	-(i3,1),i2l
  102f60:	00 03 75 ff 		MOVE	-(i3,1),i2h
  102f64:	00 03 78 ff 		MOVE	-(i3,1),ipl
  102f68:	00 03 79 ff 		MOVE	-(i3,1),iph
  102f6c:	00 16 af fc 		MOVE	a,-(i3,4)
  102f70:	00 02 fb 00 		MOVE	(i3,0),r3
  102f74:	00 02 fc 01 		MOVE	(i3,1),r2
  102f78:	00 0e a5 fe 		MOVE	i2h,#0x1
  102f7c:	00 0e a4 7d 		MOVE	i2l,#0x82
  102f80:	00 1c a0 20 		MOVE	i0l,(i2,32)
  102f84:	00 0e 20 fc 		AND	i0l,#0x3
  102f88:	00 0e a9 ff 		MOVE	iph,#0x0
  102f8c:	00 0e a8 ff 		MOVE	ipl,#0x0
  102f90:	00 0e a1 ff 		MOVE	i0h,#0x0
  102f94:	00 0e 19 ff 		CMP	iph,#0x0
  102f98:	00 32 f4 12 		JNE	0x0bed		; 102fb4 <UpdateDynamicPacketData+0x58>
  102f9c:	00 0e 18 ff 		CMP	ipl,#0x0
  102fa0:	00 32 f4 12 		JNE	0x0bed		; 102fb4 <UpdateDynamicPacketData+0x58>
  102fa4:	00 0e 11 ff 		CMP	i0h,#0x0
  102fa8:	00 32 f4 12 		JNE	0x0bed		; 102fb4 <UpdateDynamicPacketData+0x58>
  102fac:	00 0e 10 fd 		CMP	i0l,#0x2
  102fb0:	00 36 f4 01 		JEQ	0x0bfe		; 102ff8 <UpdateDynamicPacketData+0x9c>
  102fb4:	00 0e 19 ff 		CMP	iph,#0x0
  102fb8:	00 32 f4 0a 		JNE	0x0bf5		; 102fd4 <UpdateDynamicPacketData+0x78>
  102fbc:	00 0e 18 ff 		CMP	ipl,#0x0
  102fc0:	00 32 f4 0a 		JNE	0x0bf5		; 102fd4 <UpdateDynamicPacketData+0x78>
  102fc4:	00 0e 11 ff 		CMP	i0h,#0x0
  102fc8:	00 32 f4 0a 		JNE	0x0bf5		; 102fd4 <UpdateDynamicPacketData+0x78>
  102fcc:	00 0e 10 fc 		CMP	i0l,#0x3
  102fd0:	00 36 f3 f5 		JEQ	0x0c0a		; 103028 <UpdateDynamicPacketData+0xcc>
  102fd4:	00 0e 19 ff 		CMP	iph,#0x0
  102fd8:	00 32 f4 02 		JNE	0x0bfd		; 102ff4 <UpdateDynamicPacketData+0x98>
  102fdc:	00 0e 18 ff 		CMP	ipl,#0x0
  102fe0:	00 32 f4 02 		JNE	0x0bfd		; 102ff4 <UpdateDynamicPacketData+0x98>
  102fe4:	00 0e 11 ff 		CMP	i0h,#0x0
  102fe8:	00 32 f4 02 		JNE	0x0bfd		; 102ff4 <UpdateDynamicPacketData+0x98>
  102fec:	00 0e 10 fe 		CMP	i0l,#0x1
  102ff0:	00 36 f3 f5 		JEQ	0x0c0a		; 103028 <UpdateDynamicPacketData+0xcc>
  102ff4:	00 33 f3 fe 		JUMP	0x0c01		; 103004 <UpdateDynamicPacketData+0xa8>
  102ff8:	00 3a f7 2a 		CALLS	0x08d5		; 102354 <MeasureBattery>
  102ffc:	00 02 ec 1c 		MOVE	(i2,28),r2
  103000:	00 33 f3 f5 		JUMP	0x0c0a		; 103028 <UpdateDynamicPacketData+0xcc>
  103004:	00 3a ef c1 		CALLS	0x103e		; 1040f8 <MeasureTemperature>
  103008:	00 0e a1 90 		MOVE	i0h,#0x6f
  10300c:	00 0e a0 bf 		MOVE	i0l,#0x40
  103010:	00 0c af cf 		MOVE	a,r2
  103014:	00 18 cf 22 		ADD	a,(i0,34)
  103018:	00 01 bf 31 		MOVE	0xce,a	; ce <temperatureReading+0x1>
  10301c:	00 0c af bf 		MOVE	a,r3
  103020:	00 18 df 21 		ADDC	a,(i0,33)
  103024:	00 01 bf 32 		MOVE	0xcd,a	; cd <temperatureReading>
  103028:	00 0e a1 90 		MOVE	i0h,#0x6f
  10302c:	00 0e a0 bf 		MOVE	i0l,#0x40
  103030:	00 18 a5 20 		MOVE	i2h,(i0,32)
  103034:	00 0e 2f f0 		AND	a,#0xf
  103038:	00 0c af f4 		MOVE	i2l,a
  10303c:	00 0e 14 fd 		CMP	i2l,#0x2
  103040:	00 36 f3 c7 		JEQ	0x0c38		; 1030e0 <UpdateDynamicPacketData+0x184>
  103044:	00 0e 14 fd 		CMP	i2l,#0x2
  103048:	00 30 f3 e9 		JGT	0x0c16		; 103058 <UpdateDynamicPacketData+0xfc>
  10304c:	00 0e 14 fe 		CMP	i2l,#0x1
  103050:	00 32 f3 bc 		JNE	0x0c43		; 10310c <UpdateDynamicPacketData+0x1b0>
  103054:	00 33 f3 e4 		JUMP	0x0c1b		; 10306c <UpdateDynamicPacketData+0x110>
  103058:	00 0e 14 fc 		CMP	i2l,#0x3
  10305c:	00 36 f3 dd 		JEQ	0x0c22		; 103088 <UpdateDynamicPacketData+0x12c>
  103060:	00 0e 14 fb 		CMP	i2l,#0x4
  103064:	00 32 f3 bc 		JNE	0x0c43		; 10310c <UpdateDynamicPacketData+0x1b0>
  103068:	00 33 f3 d3 		JUMP	0x0c2c		; 1030b0 <UpdateDynamicPacketData+0x154>
  10306c:	00 0e a1 fe 		MOVE	i0h,#0x1
  103070:	00 0e a0 7d 		MOVE	i0l,#0x82
  103074:	00 0e af ff 		MOVE	a,#0x0
  103078:	00 02 cf 19 		MOVE	(i0,25),a
  10307c:	00 0e af ec 		MOVE	a,#0x13
  103080:	00 02 cf 18 		MOVE	(i0,24),a
  103084:	00 33 f3 ae 		JUMP	0x0c51		; 103144 <UpdateDynamicPacketData+0x1e8>
  103088:	00 04 ab 3b 		MOVE	r3,0xc4	; c4 <EM9301_Rev>
  10308c:	00 0e 2b f0 		AND	r3,#0xf
  103090:	00 04 ac 3a 		MOVE	r2,0xc5	; c5 <SEL_RC2>
  103094:	00 0e a1 fe 		MOVE	i0h,#0x1
  103098:	00 0e a0 7d 		MOVE	i0l,#0x82
  10309c:	00 0c af bf 		MOVE	a,r3
  1030a0:	00 0e bf cf 		OR	a,#0x30
  1030a4:	00 02 cf 18 		MOVE	(i0,24),a
  1030a8:	00 02 cc 19 		MOVE	(i0,25),r2
  1030ac:	00 33 f3 ae 		JUMP	0x0c51		; 103144 <UpdateDynamicPacketData+0x1e8>
  1030b0:	00 05 6b 32 		SHR	r3,0xcd	; cd <temperatureReading>
  1030b4:	00 05 4c 31 		SHRC	r2,0xce	; ce <temperatureReading+0x1>
  1030b8:	00 0e ec df 		MUL	r2,#0x20
  1030bc:	00 0e eb df 		MUL	r3,#0x20
  1030c0:	00 0c bc fc 		OR	r2,a,r2
  1030c4:	00 0e a1 fe 		MOVE	i0h,#0x1
  1030c8:	00 0e a0 7d 		MOVE	i0l,#0x82
  1030cc:	00 0c af bf 		MOVE	a,r3
  1030d0:	00 0e bf bf 		OR	a,#0x40
  1030d4:	00 02 cf 18 		MOVE	(i0,24),a
  1030d8:	00 02 cc 19 		MOVE	(i0,25),r2
  1030dc:	00 33 f3 ae 		JUMP	0x0c51		; 103144 <UpdateDynamicPacketData+0x1e8>
  1030e0:	00 3a fb f3 		CALLS	0x040c		; 101030 <GetRFCal_vco>
  1030e4:	00 0c af c4 		MOVE	i2l,r2
  1030e8:	00 3a fb ec 		CALLS	0x0413		; 10104c <GetRFCal_modulator>
  1030ec:	00 0c af ce 		MOVE	r0,r2
  1030f0:	00 0e ad ff 		MOVE	r1,#0x0
  1030f4:	00 0e bd df 		OR	r1,#0x20
  1030f8:	00 0c af 4b 		MOVE	r3,i2l
  1030fc:	00 0e ac ff 		MOVE	r2,#0x0
  103100:	00 0e 2b f0 		AND	r3,#0xf
  103104:	00 0e ac ff 		MOVE	r2,#0x0
  103108:	00 33 f3 b4 		JUMP	0x0c4b		; 10312c <UpdateDynamicPacketData+0x1d0>
  10310c:	00 3a fe 34 		CALLS	0x01cb		; 10072c <BMA222E_MeasureX>
  103110:	00 0c af bd 		MOVE	r1,r3
  103114:	00 0e 2d f0 		AND	r1,#0xf
  103118:	00 0c af ce 		MOVE	r0,r2
  10311c:	00 0c af 4f 		MOVE	a,i2l
  103120:	00 0e ef ef 		MUL	a,#0x10
  103124:	00 0c af fb 		MOVE	r3,a
  103128:	00 0e ac ff 		MOVE	r2,#0x0
  10312c:	00 0e a1 fe 		MOVE	i0h,#0x1
  103130:	00 0e a0 7d 		MOVE	i0l,#0x82
  103134:	00 0c bb df 		OR	a,r1,r3
  103138:	00 02 cf 18 		MOVE	(i0,24),a
  10313c:	00 0c bc ef 		OR	a,r0,r2
  103140:	00 02 cf 19 		MOVE	(i0,25),a
  103144:	00 04 af 54 		MOVE	a,0xab	; ab <advMachines>
  103148:	00 0e 1f fc 		CMP	a,#0x3
  10314c:	00 36 f3 7c 		JEQ	0x0c83		; 10320c <UpdateDynamicPacketData+0x2b0>
  103150:	00 0e e5 ef 		MUL	i2h,#0x10
  103154:	00 0e 15 fe 		CMP	i2h,#0x1
  103158:	00 36 f3 9a 		JEQ	0x0c65		; 103194 <UpdateDynamicPacketData+0x238>
  10315c:	00 0e 15 fe 		CMP	i2h,#0x1
  103160:	00 35 f3 a1 		JLT	0x0c5e		; 103178 <UpdateDynamicPacketData+0x21c>
  103164:	00 0e a1 fe 		MOVE	i0h,#0x1
  103168:	00 0e a0 7d 		MOVE	i0l,#0x82
  10316c:	00 0e 15 fd 		CMP	i2h,#0x2
  103170:	00 32 f3 8d 		JNE	0x0c72		; 1031c8 <UpdateDynamicPacketData+0x26c>
  103174:	00 33 f3 93 		JUMP	0x0c6c		; 1031b0 <UpdateDynamicPacketData+0x254>
  103178:	00 0e a1 fe 		MOVE	i0h,#0x1
  10317c:	00 0e a0 7d 		MOVE	i0l,#0x82
  103180:	00 04 af 2e 		MOVE	a,0xd1	; d1 <switchPress>
  103184:	00 02 cf 21 		MOVE	(i0,33),a
  103188:	00 04 af 2d 		MOVE	a,0xd2	; d2 <switchPress+0x1>
  10318c:	00 02 cf 22 		MOVE	(i0,34),a
  103190:	00 33 f3 71 		JUMP	0x0c8e		; 103238 <UpdateDynamicPacketData+0x2dc>
  103194:	00 0e a1 fe 		MOVE	i0h,#0x1
  103198:	00 0e a0 7d 		MOVE	i0l,#0x82
  10319c:	00 0e af ff 		MOVE	a,#0x0
  1031a0:	00 02 cf 22 		MOVE	(i0,34),a
  1031a4:	00 0e af ef 		MOVE	a,#0x10
  1031a8:	00 02 cf 21 		MOVE	(i0,33),a
  1031ac:	00 33 f3 71 		JUMP	0x0c8e		; 103238 <UpdateDynamicPacketData+0x2dc>
  1031b0:	00 04 af 37 		MOVE	a,0xc8	; c8 <RFCalEventCounter>
  1031b4:	00 0e bf df 		OR	a,#0x20
  1031b8:	00 02 cf 21 		MOVE	(i0,33),a
  1031bc:	00 04 af 36 		MOVE	a,0xc9	; c9 <RFCalEventCounter+0x1>
  1031c0:	00 02 cf 22 		MOVE	(i0,34),a
  1031c4:	00 33 f3 71 		JUMP	0x0c8e		; 103238 <UpdateDynamicPacketData+0x2dc>
  1031c8:	00 02 f1 02 		MOVE	(i3,2),i0h
  1031cc:	00 02 f0 03 		MOVE	(i3,3),i0l
  1031d0:	00 3a fd 87 		CALLS	0x0278		; 1009e0 <EMBC02_GetEventCount>
  1031d4:	00 0c af bd 		MOVE	r1,r3
  1031d8:	00 0e 2d f0 		AND	r1,#0xf
  1031dc:	00 0c af ce 		MOVE	r0,r2
  1031e0:	00 0c af 5f 		MOVE	a,i2h
  1031e4:	00 0e ef ef 		MUL	a,#0x10
  1031e8:	00 0c af fb 		MOVE	r3,a
  1031ec:	00 0e ac ff 		MOVE	r2,#0x0
  1031f0:	00 1e a1 02 		MOVE	i0h,(i3,2)
  1031f4:	00 1e a0 03 		MOVE	i0l,(i3,3)
  1031f8:	00 0c bb df 		OR	a,r1,r3
  1031fc:	00 02 cf 21 		MOVE	(i0,33),a
  103200:	00 0c bc ef 		OR	a,r0,r2
  103204:	00 02 cf 22 		MOVE	(i0,34),a
  103208:	00 33 f3 71 		JUMP	0x0c8e		; 103238 <UpdateDynamicPacketData+0x2dc>
  10320c:	00 04 af 5f 		MOVE	a,0xa0	; a0 <panicMode>
  103210:	00 32 f3 77 		JZC	0x0c88		; 103220 <UpdateDynamicPacketData+0x2c4>
  103214:	00 0e ac fe 		MOVE	r2,#0x1
  103218:	00 0e ab ff 		MOVE	r3,#0x0
  10321c:	00 33 f3 75 		JUMP	0x0c8a		; 103228 <UpdateDynamicPacketData+0x2cc>
  103220:	00 0e ac 00 		MOVE	r2,#0xff
  103224:	00 0e ab 00 		MOVE	r3,#0xff
  103228:	00 0e a1 fe 		MOVE	i0h,#0x1
  10322c:	00 0e a0 7d 		MOVE	i0l,#0x82
  103230:	00 02 cb 21 		MOVE	(i0,33),r3
  103234:	00 02 cc 22 		MOVE	(i0,34),r2
  103238:	00 1e ab 00 		MOVE	r3,(i3,0)
  10323c:	00 1e ac 01 		MOVE	r2,(i3,1)
  103240:	00 3a fe 7e 		CALLS	0x0181		; 100604 <UpdateDynamicAltBcnData>
  103244:	00 16 af 04 		MOVE	a,(i3,4)+
  103248:	00 16 a9 01 		MOVE	iph,(i3,1)+
  10324c:	00 16 a8 01 		MOVE	ipl,(i3,1)+
  103250:	00 16 a5 01 		MOVE	i2h,(i3,1)+
  103254:	00 16 a4 01 		MOVE	i2l,(i3,1)+
  103258:	00 23 ff ff 		JUMP	ip

0010325c <WaitForDelay>:
WaitForDelay():
  10325c:	00 03 74 ff 		MOVE	-(i3,1),i2l
  103260:	00 03 75 ff 		MOVE	-(i3,1),i2h
  103264:	00 03 78 ff 		MOVE	-(i3,1),ipl
  103268:	00 03 79 ff 		MOVE	-(i3,1),iph
  10326c:	00 16 af fc 		MOVE	a,-(i3,4)
  103270:	00 0e a5 fe 		MOVE	i2h,#0x1
  103274:	00 0e a4 7d 		MOVE	i2l,#0x82
  103278:	00 04 af 2f 		MOVE	a,0xd0	; d0 <switchPressTime>
  10327c:	00 36 f3 5a 		JZS	0x0ca5		; 103294 <WaitForDelay+0x38>
  103280:	00 0e ac dc 		MOVE	r2,#0x23
  103284:	00 0e ab ff 		MOVE	r3,#0x0
  103288:	00 3a f8 30 		CALLS	0x07cf		; 101f3c <WaitNmSec>
  10328c:	00 3a f8 46 		CALLS	0x07b9		; 101ee4 <RefreshSC>
  103290:	00 33 f3 19 		JUMP	0x0ce6		; 103398 <WaitForDelay+0x13c>
  103294:	00 04 ae 88 		MOVE	r0,0x77	; 77 <RegSCStat0>
  103298:	00 04 ad 87 		MOVE	r1,0x78	; 78 <RegSCStat1>
  10329c:	00 04 ac 86 		MOVE	r2,0x79	; 79 <RegSCStat2>
  1032a0:	00 04 ab 88 		MOVE	r3,0x77	; 77 <RegSCStat0>
  1032a4:	00 0c 1b ef 		CMP	r3,r0
  1032a8:	00 32 f3 5a 		JNE	0x0ca5		; 103294 <WaitForDelay+0x38>
  1032ac:	00 02 fb 03 		MOVE	(i3,3),r3
  1032b0:	00 02 fd 02 		MOVE	(i3,2),r1
  1032b4:	00 02 fc 01 		MOVE	(i3,1),r2
  1032b8:	00 0e af ff 		MOVE	a,#0x0
  1032bc:	00 02 ff 00 		MOVE	(i3,0),a
  1032c0:	00 04 ab 61 		MOVE	r3,0x9e	; 9e <sleepTimeDitherState>
  1032c4:	00 3a f8 b9 		CALLS	0x0746		; 101d18 <LfsrNextState>
  1032c8:	00 01 bc 61 		MOVE	0x9e,r2	; 9e <sleepTimeDitherState>
  1032cc:	00 0c af ce 		MOVE	r0,r2
  1032d0:	00 0e ad af 		MOVE	r1,#0x50
  1032d4:	00 39 eb 8c 		CALL	0x1473		; 1051cc <umodqi3>
  1032d8:	00 0c af ce 		MOVE	r0,r2
  1032dc:	00 0e ad ff 		MOVE	r1,#0x0
  1032e0:	00 0c af fc 		MOVE	r2,a
  1032e4:	00 0c af fb 		MOVE	r3,a
  1032e8:	00 0c af ef 		MOVE	a,r0
  1032ec:	00 1e cf 03 		ADD	a,(i3,3)
  1032f0:	00 02 ff 03 		MOVE	(i3,3),a
  1032f4:	00 0c af df 		MOVE	a,r1
  1032f8:	00 1e df 02 		ADDC	a,(i3,2)
  1032fc:	00 02 ff 02 		MOVE	(i3,2),a
  103300:	00 0c af cf 		MOVE	a,r2
  103304:	00 1e df 01 		ADDC	a,(i3,1)
  103308:	00 02 ff 01 		MOVE	(i3,1),a
  10330c:	00 0c af bf 		MOVE	a,r3
  103310:	00 1e df 00 		ADDC	a,(i3,0)
  103314:	00 02 ff 00 		MOVE	(i3,0),a
  103318:	00 1e af 03 		MOVE	a,(i3,3)
  10331c:	00 01 bf 8b 		MOVE	0x74,a	; 74 <RegSCLdVal0>
  103320:	00 1e af 02 		MOVE	a,(i3,2)
  103324:	00 01 bf 8a 		MOVE	0x75,a	; 75 <RegSCLdVal1>
  103328:	00 1e af 01 		MOVE	a,(i3,1)
  10332c:	00 01 bf 89 		MOVE	0x76,a	; 76 <RegSCLdVal2>
  103330:	00 04 ab 8c 		MOVE	r3,0x73	; 73 <RegSCCfg>
  103334:	00 0e 2b 40 		AND	r3,#0xbf
  103338:	00 01 bb 8c 		MOVE	0x73,r3	; 73 <RegSCCfg>
  10333c:	00 04 ab 8c 		MOVE	r3,0x73	; 73 <RegSCCfg>
  103340:	00 0e 2b 80 		AND	r3,#0x7f
  103344:	00 01 bb 8c 		MOVE	0x73,r3	; 73 <RegSCCfg>
  103348:	00 04 ab 0e 		MOVE	r3,0xf1	; f1 <beaconMode+0x1>
  10334c:	00 3a fd 7e 		CALLS	0x0281		; 100a04 <EMBC02_IVigilate_MorePacketsToCome>
  103350:	00 0e 1c ff 		CMP	r2,#0x0
  103354:	00 36 f3 26 		JEQ	0x0cd9		; 103364 <WaitForDelay+0x108>
  103358:	00 04 ab 99 		MOVE	r3,0x66	; 66 <RegInt2Msk>
  10335c:	00 0e bb bf 		OR	r3,#0x40
  103360:	00 01 bb 99 		MOVE	0x66,r3	; 66 <RegInt2Msk>
  103364:	00 04 ab ff 		MOVE	r3,0x00	; 0 <RegSysCfg1>
  103368:	00 0e bb 7f 		OR	r3,#0x80
  10336c:	00 01 bb ff 		MOVE	0x00,r3	; 0 <RegSysCfg1>
  103370:	00 0b df ff 		HALT
  103374:	00 04 ab 99 		MOVE	r3,0x66	; 66 <RegInt2Msk>
  103378:	00 0e 2b 40 		AND	r3,#0xbf
  10337c:	00 01 bb 99 		MOVE	0x66,r3	; 66 <RegInt2Msk>
  103380:	00 04 ab 8c 		MOVE	r3,0x73	; 73 <RegSCCfg>
  103384:	00 0e bb bf 		OR	r3,#0x40
  103388:	00 01 bb 8c 		MOVE	0x73,r3	; 73 <RegSCCfg>
  10338c:	00 3a f7 d7 		CALLS	0x0828		; 1020a0 <GetIntervalFromMode>
  103390:	00 3a f8 6a 		CALLS	0x0795		; 101e54 <Scale8K>
  103394:	00 3a f8 a1 		CALLS	0x075e		; 101d78 <ReloadSleepCounter>
  103398:	00 1c af 1c 		MOVE	a,(i2,28)
  10339c:	00 0e 1f e0 		CMP	a,#0x1f
  1033a0:	00 30 f3 14 		JGT	0x0ceb		; 1033ac <WaitForDelay+0x150>
  1033a4:	00 3a f7 2a 		CALLS	0x08d5		; 102354 <MeasureBattery>
  1033a8:	00 02 ec 1c 		MOVE	(i2,28),r2
  1033ac:	00 1c af 1c 		MOVE	a,(i2,28)
  1033b0:	00 0e 1f e0 		CMP	a,#0x1f
  1033b4:	00 34 f3 61 		JLE	0x0c9e		; 103278 <WaitForDelay+0x1c>
  1033b8:	00 16 af 04 		MOVE	a,(i3,4)+
  1033bc:	00 16 a9 01 		MOVE	iph,(i3,1)+
  1033c0:	00 16 a8 01 		MOVE	ipl,(i3,1)+
  1033c4:	00 16 a5 01 		MOVE	i2h,(i3,1)+
  1033c8:	00 16 a4 01 		MOVE	i2l,(i3,1)+
  1033cc:	00 23 ff ff 		JUMP	ip

001033d0 <SetupStaticPacketData>:
SetupStaticPacketData():
  1033d0:	00 03 74 ff 		MOVE	-(i3,1),i2l
  1033d4:	00 03 75 ff 		MOVE	-(i3,1),i2h
  1033d8:	00 03 78 ff 		MOVE	-(i3,1),ipl
  1033dc:	00 03 79 ff 		MOVE	-(i3,1),iph
  1033e0:	00 16 af fd 		MOVE	a,-(i3,3)
  1033e4:	00 0e a1 90 		MOVE	i0h,#0x6f
  1033e8:	00 0e a0 bf 		MOVE	i0l,#0x40
  1033ec:	00 18 af 01 		MOVE	a,(i0,1)
  1033f0:	00 32 f2 f8 		JZC	0x0d07		; 10341c <SetupStaticPacketData+0x4c>
  1033f4:	00 18 af 00 		MOVE	a,(i0,0)
  1033f8:	00 32 f2 f8 		JZC	0x0d07		; 10341c <SetupStaticPacketData+0x4c>
  1033fc:	00 18 af 02 		MOVE	a,(i0,2)
  103400:	00 32 f2 f8 		JZC	0x0d07		; 10341c <SetupStaticPacketData+0x4c>
  103404:	00 18 af 03 		MOVE	a,(i0,3)
  103408:	00 32 f2 f8 		JZC	0x0d07		; 10341c <SetupStaticPacketData+0x4c>
  10340c:	00 18 af 04 		MOVE	a,(i0,4)
  103410:	00 32 f2 f8 		JZC	0x0d07		; 10341c <SetupStaticPacketData+0x4c>
  103414:	00 18 af 05 		MOVE	a,(i0,5)
  103418:	00 36 f2 f1 		JZS	0x0d0e		; 103438 <SetupStaticPacketData+0x68>
  10341c:	00 0e af f9 		MOVE	a,#0x6
  103420:	00 02 ff 00 		MOVE	(i3,0),a
  103424:	00 0e ab fe 		MOVE	r3,#0x1
  103428:	00 0e ac 95 		MOVE	r2,#0x6a
  10342c:	00 0e ad 90 		MOVE	r1,#0x6f
  103430:	00 0e ae bf 		MOVE	r0,#0x40
  103434:	00 33 f2 d3 		JUMP	0x0d2c		; 1034b0 <SetupStaticPacketData+0xe0>
  103438:	00 0e a5 90 		MOVE	i2h,#0x6f
  10343c:	00 0e a4 3f 		MOVE	i2l,#0xc0
  103440:	00 1c ad 17 		MOVE	r1,(i2,23)
  103444:	00 0e ae ff 		MOVE	r0,#0x0
  103448:	00 1c ac 16 		MOVE	r2,(i2,22)
  10344c:	00 0e ab ff 		MOVE	r3,#0x0
  103450:	00 0c bb df 		OR	a,r1,r3
  103454:	00 02 ff 01 		MOVE	(i3,1),a
  103458:	00 0c bc ef 		OR	a,r0,r2
  10345c:	00 02 ff 02 		MOVE	(i3,2),a
  103460:	00 0c af 4c 		MOVE	r2,i2l
  103464:	00 0e cc e7 		ADD	r2,#0x18
  103468:	00 0d 5f 5b 		INCC	r3,i2h
  10346c:	00 0c af 4e 		MOVE	r0,i2l
  103470:	00 0e ce e2 		ADD	r0,#0x1d
  103474:	00 0d 5f 5d 		INCC	r1,i2h
  103478:	00 3a ef 2a 		CALLS	0x10d5		; 104354 <Calc_CRC_Data_Apl>
  10347c:	00 1e ae 02 		MOVE	r0,(i3,2)
  103480:	00 1e ad 01 		MOVE	r1,(i3,1)
  103484:	00 0c 1d bf 		CMP	r1,r3
  103488:	00 32 f2 d1 		JNE	0x0d2e		; 1034b8 <SetupStaticPacketData+0xe8>
  10348c:	00 0c 1e cf 		CMP	r0,r2
  103490:	00 32 f2 d1 		JNE	0x0d2e		; 1034b8 <SetupStaticPacketData+0xe8>
  103494:	00 0e af f9 		MOVE	a,#0x6
  103498:	00 02 ff 00 		MOVE	(i3,0),a
  10349c:	00 0e ab fe 		MOVE	r3,#0x1
  1034a0:	00 0e ac 95 		MOVE	r2,#0x6a
  1034a4:	00 0c af 4e 		MOVE	r0,i2l
  1034a8:	00 0e ce e7 		ADD	r0,#0x18
  1034ac:	00 0d 5f 5d 		INCC	r1,i2h
  1034b0:	00 3a f1 00 		CALLS	0x0eff		; 103bfc <byteCopy>
  1034b4:	00 33 f2 d0 		JUMP	0x0d2f		; 1034bc <SetupStaticPacketData+0xec>
  1034b8:	00 3a f7 5d 		CALLS	0x08a2		; 102288 <GoToBeaconFailedMode>
  1034bc:	00 0e a1 90 		MOVE	i0h,#0x6f
  1034c0:	00 0e a0 bf 		MOVE	i0l,#0x40
  1034c4:	00 18 a3 18 		MOVE	i1h,(i0,24)
  1034c8:	00 0e a2 ff 		MOVE	i1l,#0x0
  1034cc:	00 18 ac 19 		MOVE	r2,(i0,25)
  1034d0:	00 0e ab ff 		MOVE	r3,#0x0
  1034d4:	00 0c bb 33 		OR	i1h,i1h,r3
  1034d8:	00 0c bc 22 		OR	i1l,i1l,r2
  1034dc:	00 0e a1 fe 		MOVE	i0h,#0x1
  1034e0:	00 0e a0 7d 		MOVE	i0l,#0x82
  1034e4:	00 0e af ef 		MOVE	a,#0x10
  1034e8:	00 03 7f ff 		MOVE	-(i3,1),a
  1034ec:	00 0e af d8 		MOVE	a,#0x27
  1034f0:	00 03 7f ff 		MOVE	-(i3,1),a
  1034f4:	00 0c af 3d 		MOVE	r1,i1h
  1034f8:	00 0c af 2e 		MOVE	r0,i1l
  1034fc:	00 39 eb dd 		CALL	0x1422		; 105088 <udivmodhi4>
  103500:	00 16 af 02 		MOVE	a,(i3,2)+
  103504:	00 18 ce 0e 		ADD	r0,(i0,14)
  103508:	00 02 ce 0e 		MOVE	(i0,14),r0
  10350c:	00 0e af 17 		MOVE	a,#0xe8
  103510:	00 03 7f ff 		MOVE	-(i3,1),a
  103514:	00 0e af fc 		MOVE	a,#0x3
  103518:	00 03 7f ff 		MOVE	-(i3,1),a
  10351c:	00 0c af ce 		MOVE	r0,r2
  103520:	00 0c af bd 		MOVE	r1,r3
  103524:	00 39 eb dd 		CALL	0x1422		; 105088 <udivmodhi4>
  103528:	00 16 af 02 		MOVE	a,(i3,2)+
  10352c:	00 18 ce 0f 		ADD	r0,(i0,15)
  103530:	00 02 ce 0f 		MOVE	(i0,15),r0
  103534:	00 0e af 17 		MOVE	a,#0xe8
  103538:	00 03 7f ff 		MOVE	-(i3,1),a
  10353c:	00 0e af fc 		MOVE	a,#0x3
  103540:	00 03 7f ff 		MOVE	-(i3,1),a
  103544:	00 0c af 3d 		MOVE	r1,i1h
  103548:	00 0c af 2e 		MOVE	r0,i1l
  10354c:	00 39 eb dd 		CALL	0x1422		; 105088 <udivmodhi4>
  103550:	00 16 af 02 		MOVE	a,(i3,2)+
  103554:	00 0e af 9b 		MOVE	a,#0x64
  103558:	00 03 7f ff 		MOVE	-(i3,1),a
  10355c:	00 0e af ff 		MOVE	a,#0x0
  103560:	00 03 7f ff 		MOVE	-(i3,1),a
  103564:	00 0c af ce 		MOVE	r0,r2
  103568:	00 0c af bd 		MOVE	r1,r3
  10356c:	00 39 eb dd 		CALL	0x1422		; 105088 <udivmodhi4>
  103570:	00 16 af 02 		MOVE	a,(i3,2)+
  103574:	00 18 ce 10 		ADD	r0,(i0,16)
  103578:	00 02 ce 10 		MOVE	(i0,16),r0
  10357c:	00 0e af 9b 		MOVE	a,#0x64
  103580:	00 03 7f ff 		MOVE	-(i3,1),a
  103584:	00 0e af ff 		MOVE	a,#0x0
  103588:	00 03 7f ff 		MOVE	-(i3,1),a
  10358c:	00 0c af 3d 		MOVE	r1,i1h
  103590:	00 0c af 2e 		MOVE	r0,i1l
  103594:	00 39 eb dd 		CALL	0x1422		; 105088 <udivmodhi4>
  103598:	00 16 af 02 		MOVE	a,(i3,2)+
  10359c:	00 0e af f5 		MOVE	a,#0xa
  1035a0:	00 03 7f ff 		MOVE	-(i3,1),a
  1035a4:	00 0e af ff 		MOVE	a,#0x0
  1035a8:	00 03 7f ff 		MOVE	-(i3,1),a
  1035ac:	00 0c af ce 		MOVE	r0,r2
  1035b0:	00 0c af bd 		MOVE	r1,r3
  1035b4:	00 39 eb dd 		CALL	0x1422		; 105088 <udivmodhi4>
  1035b8:	00 16 af 02 		MOVE	a,(i3,2)+
  1035bc:	00 18 ce 11 		ADD	r0,(i0,17)
  1035c0:	00 02 ce 11 		MOVE	(i0,17),r0
  1035c4:	00 0e af f5 		MOVE	a,#0xa
  1035c8:	00 03 7f ff 		MOVE	-(i3,1),a
  1035cc:	00 0e af ff 		MOVE	a,#0x0
  1035d0:	00 03 7f ff 		MOVE	-(i3,1),a
  1035d4:	00 0c af 3d 		MOVE	r1,i1h
  1035d8:	00 0c af 2e 		MOVE	r0,i1l
  1035dc:	00 39 eb dd 		CALL	0x1422		; 105088 <udivmodhi4>
  1035e0:	00 16 af 02 		MOVE	a,(i3,2)+
  1035e4:	00 18 cc 12 		ADD	r2,(i0,18)
  1035e8:	00 02 cc 12 		MOVE	(i0,18),r2
  1035ec:	00 0e af fd 		MOVE	a,#0x2
  1035f0:	00 02 ff 00 		MOVE	(i3,0),a
  1035f4:	00 0c af 0c 		MOVE	r2,i0l
  1035f8:	00 0e cc e5 		ADD	r2,#0x1a
  1035fc:	00 0d 5f 1b 		INCC	r3,i0h
  103600:	00 0e ad 91 		MOVE	r1,#0x6e
  103604:	00 0e ae c8 		MOVE	r0,#0x37
  103608:	00 3a f1 00 		CALLS	0x0eff		; 103bfc <byteCopy>
  10360c:	00 3a fe 6e 		CALLS	0x0191		; 100644 <SetStaticAltBcnData>
  103610:	00 16 af 03 		MOVE	a,(i3,3)+
  103614:	00 16 a9 01 		MOVE	iph,(i3,1)+
  103618:	00 16 a8 01 		MOVE	ipl,(i3,1)+
  10361c:	00 16 a5 01 		MOVE	i2h,(i3,1)+
  103620:	00 16 a4 01 		MOVE	i2l,(i3,1)+
  103624:	00 23 ff ff 		JUMP	ip

00103628 <RunCurrentTests>:
RunCurrentTests():
  103628:	00 03 78 ff 		MOVE	-(i3,1),ipl
  10362c:	00 03 79 ff 		MOVE	-(i3,1),iph
  103630:	00 04 ab e9 		MOVE	r3,0x16	; 16 <RegPBDIn>
  103634:	00 0c af bc 		MOVE	r2,r3
  103638:	00 0e ab ff 		MOVE	r3,#0x0
  10363c:	00 0e 2c bf 		AND	r2,#0x40
  103640:	00 0e ab ff 		MOVE	r3,#0x0
  103644:	00 0c bc bf 		OR	a,r3,r2
  103648:	00 36 f2 5b 		JZS	0x0da4		; 103690 <RunCurrentTests+0x68>
  10364c:	00 04 ab d2 		MOVE	r3,0x2d	; 2d <RegGaspMode>
  103650:	00 0e 0b ff 		CMPA	r3,#0x0
  103654:	00 35 f2 5b 		JLT	0x0da4		; 103690 <RunCurrentTests+0x68>
  103658:	00 04 ab f5 		MOVE	r3,0x0a	; a <RegPADIn>
  10365c:	00 0c af bc 		MOVE	r2,r3
  103660:	00 0e ab ff 		MOVE	r3,#0x0
  103664:	00 0e 2c f7 		AND	r2,#0x8
  103668:	00 0e ab ff 		MOVE	r3,#0x0
  10366c:	00 0c bc bf 		OR	a,r3,r2
  103670:	00 32 f2 5e 		JZC	0x0da1		; 103684 <RunCurrentTests+0x5c>
  103674:	00 0e ab fe 		MOVE	r3,#0x1
  103678:	00 3a fb d0 		CALLS	0x042f		; 1010bc <Set9301PowerMode>
  10367c:	00 3a f7 6a 		CALLS	0x0895		; 102254 <EnterTerminalErrorState>
  103680:	00 33 f2 5b 		JUMP	0x0da4		; 103690 <RunCurrentTests+0x68>
  103684:	00 0e ab fe 		MOVE	r3,#0x1
  103688:	00 3a fb d0 		CALLS	0x042f		; 1010bc <Set9301PowerMode>
  10368c:	00 3a f7 5d 		CALLS	0x08a2		; 102288 <GoToBeaconFailedMode>
  103690:	00 16 a9 01 		MOVE	iph,(i3,1)+
  103694:	00 16 a8 01 		MOVE	ipl,(i3,1)+
  103698:	00 23 ff ff 		JUMP	ip

0010369c <PowerDown>:
PowerDown():
  10369c:	00 03 75 ff 		MOVE	-(i3,1),i2h
  1036a0:	00 03 78 ff 		MOVE	-(i3,1),ipl
  1036a4:	00 03 79 ff 		MOVE	-(i3,1),iph
  1036a8:	00 0c af b5 		MOVE	i2h,r3
  1036ac:	00 36 f2 4f 		JZS	0x0db0		; 1036c0 <PowerDown+0x24>
  1036b0:	00 0e ab fd 		MOVE	r3,#0x2
  1036b4:	00 3a fb d0 		CALLS	0x042f		; 1010bc <Set9301PowerMode>
  1036b8:	00 00 fe 5b 		MOVE	0xa4,#0x01	; a4 <em9301PowerState>
  1036bc:	00 33 f2 4a 		JUMP	0x0db5		; 1036d4 <PowerDown+0x38>
  1036c0:	00 3a f7 80 		CALLS	0x087f		; 1021fc <SetupGPIODefaults>
  1036c4:	00 04 ab e6 		MOVE	r3,0x19	; 19 <RegPBOE>
  1036c8:	00 0e bb df 		OR	r3,#0x20
  1036cc:	00 01 bb e6 		MOVE	0x19,r3	; 19 <RegPBOE>
  1036d0:	00 01 b5 5b 		MOVE	0xa4,i2h	; a4 <em9301PowerState>
  1036d4:	00 16 a9 01 		MOVE	iph,(i3,1)+
  1036d8:	00 16 a8 01 		MOVE	ipl,(i3,1)+
  1036dc:	00 16 a5 01 		MOVE	i2h,(i3,1)+
  1036e0:	00 23 ff ff 		JUMP	ip

001036e4 <AckNextModeWithLED>:
AckNextModeWithLED():
  1036e4:	00 03 78 ff 		MOVE	-(i3,1),ipl
  1036e8:	00 03 79 ff 		MOVE	-(i3,1),iph
  1036ec:	00 05 1b 0d 		INC	r3,0xf2	; f2 <beaconModeIdx>
  1036f0:	00 3a ed c8 		CALLS	0x1237		; 1048dc <GetMode>
  1036f4:	00 0e 1b 00 		CMP	r3,#0xff
  1036f8:	00 32 f2 3c 		JNE	0x0dc3		; 10370c <AckNextModeWithLED+0x28>
  1036fc:	00 0e 1c 00 		CMP	r2,#0xff
  103700:	00 32 f2 3c 		JNE	0x0dc3		; 10370c <AckNextModeWithLED+0x28>
  103704:	00 3a f7 e5 		CALLS	0x081a		; 102068 <EnableI2LED>
  103708:	00 33 f2 39 		JUMP	0x0dc6		; 103718 <AckNextModeWithLED+0x34>
  10370c:	00 04 ab f4 		MOVE	r3,0x0b	; b <RegPADOut>
  103710:	00 0e bb ef 		OR	r3,#0x10
  103714:	00 01 bb f4 		MOVE	0x0b,r3	; b <RegPADOut>
  103718:	00 16 a9 01 		MOVE	iph,(i3,1)+
  10371c:	00 16 a8 01 		MOVE	ipl,(i3,1)+
  103720:	00 23 ff ff 		JUMP	ip

00103724 <ProcessButton>:
ProcessButton():
  103724:	00 03 78 ff 		MOVE	-(i3,1),ipl
  103728:	00 03 79 ff 		MOVE	-(i3,1),iph
  10372c:	00 04 af 54 		MOVE	a,0xab	; ab <advMachines>
  103730:	00 0e 1f fc 		CMP	a,#0x3
  103734:	00 32 f2 2e 		JNE	0x0dd1		; 103744 <ProcessButton+0x20>
  103738:	00 04 af 0d 		MOVE	a,0xf2	; f2 <beaconModeIdx>
  10373c:	00 0e 1f fe 		CMP	a,#0x1
  103740:	00 32 f2 2c 		JNE	0x0dd3		; 10374c <ProcessButton+0x28>
  103744:	00 04 af 30 		MOVE	a,0xcf	; cf <stickyMode>
  103748:	00 32 f1 ee 		JZC	0x0e11		; 103844 <ProcessButton+0x120>
  10374c:	00 04 ab f5 		MOVE	r3,0x0a	; a <RegPADIn>
  103750:	00 0c af bc 		MOVE	r2,r3
  103754:	00 0e ab ff 		MOVE	r3,#0x0
  103758:	00 0e 2c f7 		AND	r2,#0x8
  10375c:	00 0e ab ff 		MOVE	r3,#0x0
  103760:	00 0c bc bf 		OR	a,r3,r2
  103764:	00 32 f2 06 		JZC	0x0df9		; 1037e4 <ProcessButton+0xc0>
  103768:	00 04 af 2f 		MOVE	a,0xd0	; d0 <switchPressTime>
  10376c:	00 32 f2 22 		JZC	0x0ddd		; 103774 <ProcessButton+0x50>
  103770:	00 3a f2 46 		CALLS	0x0db9		; 1036e4 <AckNextModeWithLED>
  103774:	00 05 1b 2f 		INC	r3,0xd0	; d0 <switchPressTime>
  103778:	00 01 bb 2f 		MOVE	0xd0,r3	; d0 <switchPressTime>
  10377c:	00 0e 1b b0 		CMP	r3,#0x4f
  103780:	00 34 f1 ee 		JLE	0x0e11		; 103844 <ProcessButton+0x120>
  103784:	00 00 ff 2f 		MOVE	0xd0,#0x00	; d0 <switchPressTime>
  103788:	00 04 ab f4 		MOVE	r3,0x0b	; b <RegPADOut>
  10378c:	00 0e 2b 10 		AND	r3,#0xef
  103790:	00 01 bb f4 		MOVE	0x0b,r3	; b <RegPADOut>
  103794:	00 3a f7 de 		CALLS	0x0821		; 102084 <DisableI2LED>
  103798:	00 04 ac 0e 		MOVE	r2,0xf1	; f1 <beaconMode+0x1>
  10379c:	00 0e 2c c0 		AND	r2,#0x3f
  1037a0:	00 0e ab ff 		MOVE	r3,#0x0
  1037a4:	00 0c bc bf 		OR	a,r3,r2
  1037a8:	00 36 f1 ee 		JZS	0x0e11		; 103844 <ProcessButton+0x120>
  1037ac:	00 04 af 54 		MOVE	a,0xab	; ab <advMachines>
  1037b0:	00 0e 1f fc 		CMP	a,#0x3
  1037b4:	00 32 f2 09 		JNE	0x0df6		; 1037d8 <ProcessButton+0xb4>
  1037b8:	00 04 af 30 		MOVE	a,0xcf	; cf <stickyMode>
  1037bc:	00 36 f2 09 		JZS	0x0df6		; 1037d8 <ProcessButton+0xb4>
  1037c0:	00 00 ff 5f 		MOVE	0xa0,#0x00	; a0 <panicMode>
  1037c4:	00 3a f8 46 		CALLS	0x07b9		; 101ee4 <RefreshSC>
  1037c8:	00 0e ac 17 		MOVE	r2,#0xe8
  1037cc:	00 0e ab fc 		MOVE	r3,#0x3
  1037d0:	00 3a f8 30 		CALLS	0x07cf		; 101f3c <WaitNmSec>
  1037d4:	00 33 f1 ee 		JUMP	0x0e11		; 103844 <ProcessButton+0x120>
  1037d8:	00 00 fe 30 		MOVE	0xcf,#0x01	; cf <stickyMode>
  1037dc:	00 3a f7 9e 		CALLS	0x0861		; 102184 <AckStickyStateWithLED>
  1037e0:	00 33 f1 ee 		JUMP	0x0e11		; 103844 <ProcessButton+0x120>
  1037e4:	00 04 ab 2f 		MOVE	r3,0xd0	; d0 <switchPressTime>
  1037e8:	00 36 f1 ee 		JZS	0x0e11		; 103844 <ProcessButton+0x120>
  1037ec:	00 0e 1b fe 		CMP	r3,#0x1
  1037f0:	00 34 f1 f3 		JLE	0x0e0c		; 103830 <ProcessButton+0x10c>
  1037f4:	00 05 1c 2d 		INC	r2,0xd2	; d2 <switchPress+0x1>
  1037f8:	00 05 5b 2e 		INCC	r3,0xd1	; d1 <switchPress>
  1037fc:	00 0e fb f0 		TSTPAT	r3,#0xf
  103800:	00 01 bf 2e 		MOVE	0xd1,a	; d1 <switchPress>
  103804:	00 01 bc 2d 		MOVE	0xd2,r2	; d2 <switchPress+0x1>
  103808:	00 04 af 30 		MOVE	a,0xcf	; cf <stickyMode>
  10380c:	00 32 f1 f7 		JZC	0x0e08		; 103820 <ProcessButton+0xfc>
  103810:	00 3a ed a1 		CALLS	0x125e		; 104978 <NextMode>
  103814:	00 04 ab 0d 		MOVE	r3,0xf2	; f2 <beaconModeIdx>
  103818:	00 3a fd 34 		CALLS	0x02cb		; 100b2c <EMBC02_IVigilate_ChangeState>
  10381c:	00 33 f1 f3 		JUMP	0x0e0c		; 103830 <ProcessButton+0x10c>
  103820:	00 0e a1 91 		MOVE	i0h,#0x6e
  103824:	00 0e a0 c9 		MOVE	i0l,#0x36
  103828:	00 18 af 00 		MOVE	a,(i0,0)
  10382c:	00 01 bf 5f 		MOVE	0xa0,a	; a0 <panicMode>
  103830:	00 00 ff 2f 		MOVE	0xd0,#0x00	; d0 <switchPressTime>
  103834:	00 04 ab f4 		MOVE	r3,0x0b	; b <RegPADOut>
  103838:	00 0e 2b 10 		AND	r3,#0xef
  10383c:	00 01 bb f4 		MOVE	0x0b,r3	; b <RegPADOut>
  103840:	00 3a f7 de 		CALLS	0x0821		; 102084 <DisableI2LED>
  103844:	00 16 a9 01 		MOVE	iph,(i3,1)+
  103848:	00 16 a8 01 		MOVE	ipl,(i3,1)+
  10384c:	00 23 ff ff 		JUMP	ip

00103850 <main>:
main():
  103850:	00 03 74 ff 		MOVE	-(i3,1),i2l
  103854:	00 03 75 ff 		MOVE	-(i3,1),i2h
  103858:	00 03 78 ff 		MOVE	-(i3,1),ipl
  10385c:	00 03 79 ff 		MOVE	-(i3,1),iph
  103860:	00 16 af fe 		MOVE	a,-(i3,2)
  103864:	00 3a f5 54 		CALLS	0x0aab		; 102aac <InitChip>
  103868:	00 3a f4 f2 		CALLS	0x0b0d		; 102c34 <InitBoard>
  10386c:	00 3a f0 8d 		CALLS	0x0f72		; 103dc8 <InitTemperature>
  103870:	00 3a ef c1 		CALLS	0x103e		; 1040f8 <MeasureTemperature>
  103874:	00 0e a1 90 		MOVE	i0h,#0x6f
  103878:	00 0e a0 bf 		MOVE	i0l,#0x40
  10387c:	00 0c af cf 		MOVE	a,r2
  103880:	00 18 cf 22 		ADD	a,(i0,34)
  103884:	00 01 bf 31 		MOVE	0xce,a	; ce <temperatureReading+0x1>
  103888:	00 0c af bf 		MOVE	a,r3
  10388c:	00 18 df 21 		ADDC	a,(i0,33)
  103890:	00 01 bf 32 		MOVE	0xcd,a	; cd <temperatureReading>
  103894:	00 3a f8 13 		CALLS	0x07ec		; 101fb0 <Calibrate8KTimer>
  103898:	00 3a f7 4a 		CALLS	0x08b5		; 1022d4 <InitParams>
  10389c:	00 3a fc ee 		CALLS	0x0311		; 100c44 <EMBC02_PowerOnInit>
  1038a0:	00 0e 1c ff 		CMP	r2,#0x0
  1038a4:	00 32 f1 d4 		JNE	0x0e2b		; 1038ac <main+0x5c>
  1038a8:	00 3a f7 5d 		CALLS	0x08a2		; 102288 <GoToBeaconFailedMode>
  1038ac:	00 3a f3 0b 		CALLS	0x0cf4		; 1033d0 <SetupStaticPacketData>
  1038b0:	00 3a ef 29 		CALLS	0x10d6		; 104358 <GetStaticIdDataPacket>
  1038b4:	00 01 bb 67 		MOVE	0x98,r3	; 98 <pIdDataPacket>
  1038b8:	00 01 bc 66 		MOVE	0x99,r2	; 99 <pIdDataPacket+0x1>
  1038bc:	00 3a f8 3b 		CALLS	0x07c4		; 101f10 <GetDeviceSeed>
  1038c0:	00 01 bc 61 		MOVE	0x9e,r2	; 9e <sleepTimeDitherState>
  1038c4:	00 0e ac cd 		MOVE	r2,#0x32
  1038c8:	00 0e ab ff 		MOVE	r3,#0x0
  1038cc:	00 3a f8 30 		CALLS	0x07cf		; 101f3c <WaitNmSec>
  1038d0:	00 04 ab 5b 		MOVE	r3,0xa4	; a4 <em9301PowerState>
  1038d4:	00 3a fa 7e 		CALLS	0x0581		; 101604 <PowerUp9301>
  1038d8:	00 0e ac cd 		MOVE	r2,#0x32
  1038dc:	00 0e ab ff 		MOVE	r3,#0x0
  1038e0:	00 3a f8 30 		CALLS	0x07cf		; 101f3c <WaitNmSec>
  1038e4:	00 3a fa b1 		CALLS	0x054e		; 101538 <Determine9301DieRev>
  1038e8:	00 0e 1c ff 		CMP	r2,#0x0
  1038ec:	00 32 f1 c2 		JNE	0x0e3d		; 1038f4 <main+0xa4>
  1038f0:	00 3a f7 5d 		CALLS	0x08a2		; 102288 <GoToBeaconFailedMode>
  1038f4:	00 3a f2 75 		CALLS	0x0d8a		; 103628 <RunCurrentTests>
  1038f8:	00 04 ab f5 		MOVE	r3,0x0a	; a <RegPADIn>
  1038fc:	00 0c af bc 		MOVE	r2,r3
  103900:	00 0e ab ff 		MOVE	r3,#0x0
  103904:	00 0e 2c f7 		AND	r2,#0x8
  103908:	00 0e ab ff 		MOVE	r3,#0x0
  10390c:	00 0c bc bf 		OR	a,r3,r2
  103910:	00 32 f1 b3 		JZC	0x0e4c		; 103930 <main+0xe0>
  103914:	00 00 fe 30 		MOVE	0xcf,#0x01	; cf <stickyMode>
  103918:	00 04 ac 55 		MOVE	r2,0xaa	; aa <MON_DUMP>
  10391c:	00 0e ab ff 		MOVE	r3,#0x0
  103920:	00 0e fc c0 		TSTPAT	r2,#0x3f
  103924:	00 01 bf 0e 		MOVE	0xf1,a	; f1 <beaconMode+0x1>
  103928:	00 00 ff 0f 		MOVE	0xf0,#0x00	; f0 <beaconMode>
  10392c:	00 33 f1 83 		JUMP	0x0e7c		; 1039f0 <main+0x1a0>
  103930:	00 3a f0 51 		CALLS	0x0fae		; 103eb8 <GetLastTemperatureCelsius>
  103934:	00 3a fb 58 		CALLS	0x04a7		; 10129c <Check9301>
  103938:	00 0e 1c ff 		CMP	r2,#0x0
  10393c:	00 36 f1 ae 		JEQ	0x0e51		; 103944 <main+0xf4>
  103940:	00 3a f7 5d 		CALLS	0x08a2		; 102288 <GoToBeaconFailedMode>
  103944:	00 3a f7 e5 		CALLS	0x081a		; 102068 <EnableI2LED>
  103948:	00 04 ab f4 		MOVE	r3,0x0b	; b <RegPADOut>
  10394c:	00 0e bb ef 		OR	r3,#0x10
  103950:	00 01 bb f4 		MOVE	0x0b,r3	; b <RegPADOut>
  103954:	00 3a f0 51 		CALLS	0x0fae		; 103eb8 <GetLastTemperatureCelsius>
  103958:	00 0e ad fe 		MOVE	r1,#0x1
  10395c:	00 3a fb c6 		CALLS	0x0439		; 1010e4 <RFCalibration>
  103960:	00 0e a5 fe 		MOVE	i2h,#0x1
  103964:	00 0e a4 7d 		MOVE	i2l,#0x82
  103968:	00 1c ac 1c 		MOVE	r2,(i2,28)
  10396c:	00 0e ab ff 		MOVE	r3,#0x0
  103970:	00 3a f4 28 		CALLS	0x0bd7		; 102f5c <UpdateDynamicPacketData>
  103974:	00 0e ab ff 		MOVE	r3,#0x0
  103978:	00 3a ef 26 		CALLS	0x10d9		; 104364 <UpdateDynamicIdPacketData>
  10397c:	00 3a fb f3 		CALLS	0x040c		; 101030 <GetRFCal_vco>
  103980:	00 02 fc 00 		MOVE	(i3,0),r2
  103984:	00 3a fb ec 		CALLS	0x0413		; 10104c <GetRFCal_modulator>
  103988:	00 0c af c0 		MOVE	i0l,r2
  10398c:	00 0e a1 ff 		MOVE	i0h,#0x0
  103990:	00 0e b1 df 		OR	i0h,#0x20
  103994:	00 1e ab 00 		MOVE	r3,(i3,0)
  103998:	00 0e ac ff 		MOVE	r2,#0x0
  10399c:	00 0c af bd 		MOVE	r1,r3
  1039a0:	00 0e 2d f0 		AND	r1,#0xf
  1039a4:	00 0e ae ff 		MOVE	r0,#0x0
  1039a8:	00 0c bd 1f 		OR	a,i0h,r1
  1039ac:	00 02 ef 18 		MOVE	(i2,24),a
  1039b0:	00 0c be 0f 		OR	a,i0l,r0
  1039b4:	00 02 ef 19 		MOVE	(i2,25),a
  1039b8:	00 0c af c5 		MOVE	i2h,r2
  1039bc:	00 0e ab ff 		MOVE	r3,#0x0
  1039c0:	00 0e ac fc 		MOVE	r2,#0x3
  1039c4:	00 3a f4 85 		CALLS	0x0b7a		; 102de8 <SendData>
  1039c8:	00 0e ac f5 		MOVE	r2,#0xa
  1039cc:	00 0e ab ff 		MOVE	r3,#0x0
  1039d0:	00 3a f8 30 		CALLS	0x07cf		; 101f3c <WaitNmSec>
  1039d4:	00 0d 1f 55 		INC	i2h,i2h
  1039d8:	00 0e 15 f5 		CMP	i2h,#0xa
  1039dc:	00 32 f1 90 		JNE	0x0e6f		; 1039bc <main+0x16c>
  1039e0:	00 04 ab f4 		MOVE	r3,0x0b	; b <RegPADOut>
  1039e4:	00 0e 2b 10 		AND	r3,#0xef
  1039e8:	00 01 bb f4 		MOVE	0x0b,r3	; b <RegPADOut>
  1039ec:	00 3a f7 de 		CALLS	0x0821		; 102084 <DisableI2LED>
  1039f0:	00 3a f7 b8 		CALLS	0x0847		; 10211c <GetPowerFromMode>
  1039f4:	00 02 fc 00 		MOVE	(i3,0),r2
  1039f8:	00 0e a5 fe 		MOVE	i2h,#0x1
  1039fc:	00 0e a4 7d 		MOVE	i2l,#0x82
  103a00:	00 1c ae 20 		MOVE	r0,(i2,32)
  103a04:	00 1c ad 1f 		MOVE	r1,(i2,31)
  103a08:	00 1c ac 1e 		MOVE	r2,(i2,30)
  103a0c:	00 1c ab 1d 		MOVE	r3,(i2,29)
  103a10:	00 3a f5 ed 		CALLS	0x0a12		; 102848 <GetBatteryLife>
  103a14:	00 1e ab 00 		MOVE	r3,(i3,0)
  103a18:	00 3a f4 28 		CALLS	0x0bd7		; 102f5c <UpdateDynamicPacketData>
  103a1c:	00 0e ab ff 		MOVE	r3,#0x0
  103a20:	00 3a f2 58 		CALLS	0x0da7		; 10369c <PowerDown>
  103a24:	00 3a f7 b8 		CALLS	0x0847		; 10211c <GetPowerFromMode>
  103a28:	00 0c af cb 		MOVE	r3,r2
  103a2c:	00 3a ef 26 		CALLS	0x10d9		; 104364 <UpdateDynamicIdPacketData>
  103a30:	00 04 ae 62 		MOVE	r0,0x9d	; 9d <beaconPeriodMS+0x3>
  103a34:	00 04 ad 63 		MOVE	r1,0x9c	; 9c <beaconPeriodMS+0x2>
  103a38:	00 04 ac 64 		MOVE	r2,0x9b	; 9b <beaconPeriodMS+0x1>
  103a3c:	00 04 ab 65 		MOVE	r3,0x9a	; 9a <beaconPeriodMS>
  103a40:	00 3a f8 6a 		CALLS	0x0795		; 101e54 <Scale8K>
  103a44:	00 3a f8 98 		CALLS	0x0767		; 101d9c <InitSleepCounter>
  103a48:	00 04 ab 99 		MOVE	r3,0x66	; 66 <RegInt2Msk>
  103a4c:	00 0e bb fd 		OR	r3,#0x2
  103a50:	00 01 bb 99 		MOVE	0x66,r3	; 66 <RegInt2Msk>
  103a54:	00 04 ab 0d 		MOVE	r3,0xf2	; f2 <beaconModeIdx>
  103a58:	00 3a fd 34 		CALLS	0x02cb		; 100b2c <EMBC02_IVigilate_ChangeState>
  103a5c:	00 04 af 2f 		MOVE	a,0xd0	; d0 <switchPressTime>
  103a60:	00 32 f1 09 		JZC	0x0ef6		; 103bd8 <main+0x388>
  103a64:	00 3a ee 33 		CALLS	0x11cc		; 104730 <beaconing>
  103a68:	00 0c af cb 		MOVE	r3,r2
  103a6c:	00 36 f1 0d 		JZS	0x0ef2		; 103bc8 <main+0x378>
  103a70:	00 04 ab 5b 		MOVE	r3,0xa4	; a4 <em9301PowerState>
  103a74:	00 3a fa 7e 		CALLS	0x0581		; 101604 <PowerUp9301>
  103a78:	00 04 ac 39 		MOVE	r2,0xc6	; c6 <EM9301_FeatureSet>
  103a7c:	00 0e ab ff 		MOVE	r3,#0x0
  103a80:	00 0e 2c fb 		AND	r2,#0x4
  103a84:	00 0e ab ff 		MOVE	r3,#0x0
  103a88:	00 0c bc bf 		OR	a,r3,r2
  103a8c:	00 36 f1 53 		JZS	0x0eac		; 103ab0 <main+0x260>
  103a90:	00 3a f0 51 		CALLS	0x0fae		; 103eb8 <GetLastTemperatureCelsius>
  103a94:	00 0e ad ff 		MOVE	r1,#0x0
  103a98:	00 3a fb c6 		CALLS	0x0439		; 1010e4 <RFCalibration>
  103a9c:	00 04 af 38 		MOVE	a,0xc7	; c7 <RFCalState>
  103aa0:	00 32 f1 53 		JZC	0x0eac		; 103ab0 <main+0x260>
  103aa4:	00 0e ab ff 		MOVE	r3,#0x0
  103aa8:	00 3a f2 58 		CALLS	0x0da7		; 10369c <PowerDown>
  103aac:	00 3a f7 6a 		CALLS	0x0895		; 102254 <EnterTerminalErrorState>
  103ab0:	00 04 ab 0d 		MOVE	r3,0xf2	; f2 <beaconModeIdx>
  103ab4:	00 04 ac 0e 		MOVE	r2,0xf1	; f1 <beaconMode+0x1>
  103ab8:	00 3a fd 7b 		CALLS	0x0284		; 100a10 <EMBC02_IVigilate_OkToAdvertise>
  103abc:	00 0e 1c ff 		CMP	r2,#0x0
  103ac0:	00 36 f1 3f 		JEQ	0x0ec0		; 103b00 <main+0x2b0>
  103ac4:	00 04 af 54 		MOVE	a,0xab	; ab <advMachines>
  103ac8:	00 0e 1f fc 		CMP	a,#0x3
  103acc:	00 32 f1 47 		JNE	0x0eb8		; 103ae0 <main+0x290>
  103ad0:	00 3a f7 b8 		CALLS	0x0847		; 10211c <GetPowerFromMode>
  103ad4:	00 0c af cb 		MOVE	r3,r2
  103ad8:	00 04 ac 0e 		MOVE	r2,0xf1	; f1 <beaconMode+0x1>
  103adc:	00 33 f1 40 		JUMP	0x0ebf		; 103afc <main+0x2ac>
  103ae0:	00 3a f7 b8 		CALLS	0x0847		; 10211c <GetPowerFromMode>
  103ae4:	00 04 af 0e 		MOVE	a,0xf1	; f1 <beaconMode+0x1>
  103ae8:	00 02 ff 00 		MOVE	(i3,0),a
  103aec:	00 02 fc 01 		MOVE	(i3,1),r2
  103af0:	00 3a ed d8 		CALLS	0x1227		; 10489c <RotateModeMask>
  103af4:	00 1e 2c 00 		AND	r2,(i3,0)
  103af8:	00 1e ab 01 		MOVE	r3,(i3,1)
  103afc:	00 3a f4 85 		CALLS	0x0b7a		; 102de8 <SendData>
  103b00:	00 04 af 5f 		MOVE	a,0xa0	; a0 <panicMode>
  103b04:	00 36 f1 2c 		JZS	0x0ed3		; 103b4c <main+0x2fc>
  103b08:	00 04 ab f4 		MOVE	r3,0x0b	; b <RegPADOut>
  103b0c:	00 0e 2b 10 		AND	r3,#0xef
  103b10:	00 01 bb f4 		MOVE	0x0b,r3	; b <RegPADOut>
  103b14:	00 3a f7 de 		CALLS	0x0821		; 102084 <DisableI2LED>
  103b18:	00 04 ac 5f 		MOVE	r2,0xa0	; a0 <panicMode>
  103b1c:	00 0e ab ff 		MOVE	r3,#0x0
  103b20:	00 0e 2c fe 		AND	r2,#0x1
  103b24:	00 0e ab ff 		MOVE	r3,#0x0
  103b28:	00 0c bc bf 		OR	a,r3,r2
  103b2c:	00 32 f1 2f 		JZC	0x0ed0		; 103b40 <main+0x2f0>
  103b30:	00 04 ab f4 		MOVE	r3,0x0b	; b <RegPADOut>
  103b34:	00 0e bb ef 		OR	r3,#0x10
  103b38:	00 01 bb f4 		MOVE	0x0b,r3	; b <RegPADOut>
  103b3c:	00 33 f1 2e 		JUMP	0x0ed1		; 103b44 <main+0x2f4>
  103b40:	00 3a f7 e5 		CALLS	0x081a		; 102068 <EnableI2LED>
  103b44:	00 05 bf 5f 		DEC	a,0xa0	; a0 <panicMode>
  103b48:	00 01 bf 5f 		MOVE	0xa0,a	; a0 <panicMode>
  103b4c:	00 3a f7 b8 		CALLS	0x0847		; 10211c <GetPowerFromMode>
  103b50:	00 02 fc 00 		MOVE	(i3,0),r2
  103b54:	00 1c ae 20 		MOVE	r0,(i2,32)
  103b58:	00 1c ad 1f 		MOVE	r1,(i2,31)
  103b5c:	00 1c ac 1e 		MOVE	r2,(i2,30)
  103b60:	00 1c ab 1d 		MOVE	r3,(i2,29)
  103b64:	00 3a f5 ed 		CALLS	0x0a12		; 102848 <GetBatteryLife>
  103b68:	00 1e ab 00 		MOVE	r3,(i3,0)
  103b6c:	00 3a f4 28 		CALLS	0x0bd7		; 102f5c <UpdateDynamicPacketData>
  103b70:	00 3a f7 b8 		CALLS	0x0847		; 10211c <GetPowerFromMode>
  103b74:	00 0c af cb 		MOVE	r3,r2
  103b78:	00 3a ef 26 		CALLS	0x10d9		; 104364 <UpdateDynamicIdPacketData>
  103b7c:	00 3a f7 b8 		CALLS	0x0847		; 10211c <GetPowerFromMode>
  103b80:	00 0c af cb 		MOVE	r3,r2
  103b84:	00 3a ef 23 		CALLS	0x10dc		; 104370 <UpdateDynamicEddystonePacketData>
  103b88:	00 0e a1 ff 		MOVE	i0h,#0x0
  103b8c:	00 04 ae 62 		MOVE	r0,0x9d	; 9d <beaconPeriodMS+0x3>
  103b90:	00 04 ad 63 		MOVE	r1,0x9c	; 9c <beaconPeriodMS+0x2>
  103b94:	00 04 ac 64 		MOVE	r2,0x9b	; 9b <beaconPeriodMS+0x1>
  103b98:	00 04 ab 65 		MOVE	r3,0x9a	; 9a <beaconPeriodMS>
  103b9c:	00 0e 1b ff 		CMP	r3,#0x0
  103ba0:	00 32 f1 11 		JNE	0x0eee		; 103bb8 <main+0x368>
  103ba4:	00 0e 1c ff 		CMP	r2,#0x0
  103ba8:	00 32 f1 11 		JNE	0x0eee		; 103bb8 <main+0x368>
  103bac:	00 0e 1d fe 		CMP	r1,#0x1
  103bb0:	00 32 f1 11 		JNE	0x0eee		; 103bb8 <main+0x368>
  103bb4:	00 0e 1e d3 		CMP	r0,#0x2c
  103bb8:	00 30 f1 0f 		JGT	0x0ef0		; 103bc0 <main+0x370>
  103bbc:	00 0e a1 fe 		MOVE	i0h,#0x1
  103bc0:	00 0c af 1b 		MOVE	r3,i0h
  103bc4:	00 33 f1 0a 		JUMP	0x0ef5		; 103bd4 <main+0x384>
  103bc8:	00 04 af 5b 		MOVE	a,0xa4	; a4 <em9301PowerState>
  103bcc:	00 0e 1f fe 		CMP	a,#0x1
  103bd0:	00 32 f1 09 		JNE	0x0ef6		; 103bd8 <main+0x388>
  103bd4:	00 3a f2 58 		CALLS	0x0da7		; 10369c <PowerDown>
  103bd8:	00 3a f3 68 		CALLS	0x0c97		; 10325c <WaitForDelay>
  103bdc:	00 3a f2 36 		CALLS	0x0dc9		; 103724 <ProcessButton>
  103be0:	00 33 f1 68 		JUMP	0x0e97		; 103a5c <main+0x20c>
  103be4:	00 16 af 02 		MOVE	a,(i3,2)+
  103be8:	00 16 a9 01 		MOVE	iph,(i3,1)+
  103bec:	00 16 a8 01 		MOVE	ipl,(i3,1)+
  103bf0:	00 16 a5 01 		MOVE	i2h,(i3,1)+
  103bf4:	00 16 a4 01 		MOVE	i2l,(i3,1)+
  103bf8:	00 23 ff ff 		JUMP	ip

00103bfc <byteCopy>:
byteCopy():
  103bfc:	00 03 74 ff 		MOVE	-(i3,1),i2l
  103c00:	00 03 75 ff 		MOVE	-(i3,1),i2h
  103c04:	00 03 78 ff 		MOVE	-(i3,1),ipl
  103c08:	00 03 79 ff 		MOVE	-(i3,1),iph
  103c0c:	00 16 af fc 		MOVE	a,-(i3,4)
  103c10:	00 02 fd 02 		MOVE	(i3,2),r1
  103c14:	00 02 fe 03 		MOVE	(i3,3),r0
  103c18:	00 1e ae 08 		MOVE	r0,(i3,8)
  103c1c:	00 0e a0 ff 		MOVE	i0l,#0x0
  103c20:	00 0e a1 ff 		MOVE	i0h,#0x0
  103c24:	00 33 f0 e4 		JUMP	0x0f1b		; 103c6c <byteCopy+0x70>
  103c28:	00 0c c0 cf 		ADD	a,r2,i0l
  103c2c:	00 02 ff 01 		MOVE	(i3,1),a
  103c30:	00 0c d1 bf 		ADDC	a,r3,i0h
  103c34:	00 02 ff 00 		MOVE	(i3,0),a
  103c38:	00 0c af 19 		MOVE	iph,i0h
  103c3c:	00 0c af 08 		MOVE	ipl,i0l
  103c40:	00 1e c8 03 		ADD	ipl,(i3,3)
  103c44:	00 1e d9 02 		ADDC	iph,(i3,2)
  103c48:	00 1e a2 01 		MOVE	i1l,(i3,1)
  103c4c:	00 1e a3 00 		MOVE	i1h,(i3,0)
  103c50:	00 0c af 84 		MOVE	i2l,ipl
  103c54:	00 0c af 95 		MOVE	i2h,iph
  103c58:	00 1c af 00 		MOVE	a,(i2,0)
  103c5c:	00 02 df 00 		MOVE	(i1,0),a
  103c60:	00 0d 1f 00 		INC	i0l,i0l
  103c64:	00 0d 5f 11 		INCC	i0h,i0h
  103c68:	00 0d bf ee 		DEC	r0,r0
  103c6c:	00 0e 1e ff 		CMP	r0,#0x0
  103c70:	00 32 f0 f5 		JNE	0x0f0a		; 103c28 <byteCopy+0x2c>
  103c74:	00 16 af 04 		MOVE	a,(i3,4)+
  103c78:	00 16 a9 01 		MOVE	iph,(i3,1)+
  103c7c:	00 16 a8 01 		MOVE	ipl,(i3,1)+
  103c80:	00 16 a5 01 		MOVE	i2h,(i3,1)+
  103c84:	00 16 a4 01 		MOVE	i2l,(i3,1)+
  103c88:	00 23 ff ff 		JUMP	ip

00103c8c <WaitNuSec>:
WaitNuSec():
  103c8c:	00 23 ff ff 		JUMP	ip

00103c90 <SPI_Putc>:
SPI_Putc():
  103c90:	00 01 bb 81 		MOVE	0x7e,r3	; 7e <RegSPIDOut>
  103c94:	00 04 ab 83 		MOVE	r3,0x7c	; 7c <RegSPIStart>
  103c98:	00 0e bb 7f 		OR	r3,#0x80
  103c9c:	00 01 bb 83 		MOVE	0x7c,r3	; 7c <RegSPIStart>
  103ca0:	00 04 ab 83 		MOVE	r3,0x7c	; 7c <RegSPIStart>
  103ca4:	00 0e 0b ff 		CMPA	r3,#0x0
  103ca8:	00 35 f0 d7 		JLT	0x0f28		; 103ca0 <SPI_Putc+0x10>
  103cac:	00 23 ff ff 		JUMP	ip

00103cb0 <SPI_Start_Send>:
SPI_Start_Send():
  103cb0:	00 03 78 ff 		MOVE	-(i3,1),ipl
  103cb4:	00 03 79 ff 		MOVE	-(i3,1),iph
  103cb8:	00 00 00 81 		MOVE	0x7e,#0xff	; 7e <RegSPIDOut>
  103cbc:	00 04 ab 83 		MOVE	r3,0x7c	; 7c <RegSPIStart>
  103cc0:	00 0e bb 7f 		OR	r3,#0x80
  103cc4:	00 01 bb 83 		MOVE	0x7c,r3	; 7c <RegSPIStart>
  103cc8:	00 04 ab 83 		MOVE	r3,0x7c	; 7c <RegSPIStart>
  103ccc:	00 0e 0b ff 		CMPA	r3,#0x0
  103cd0:	00 35 f0 cd 		JLT	0x0f32		; 103cc8 <SPI_Start_Send+0x18>
  103cd4:	00 04 ab df 		MOVE	r3,0x20	; 20 <RegPCDOut>
  103cd8:	00 0e 2b 10 		AND	r3,#0xef
  103cdc:	00 01 bb df 		MOVE	0x20,r3	; 20 <RegPCDOut>
  103ce0:	00 0e ab fe 		MOVE	r3,#0x1
  103ce4:	00 3a f0 db 		CALLS	0x0f24		; 103c90 <SPI_Putc>
  103ce8:	00 16 a9 01 		MOVE	iph,(i3,1)+
  103cec:	00 16 a8 01 		MOVE	ipl,(i3,1)+
  103cf0:	00 23 ff ff 		JUMP	ip

00103cf4 <SPI_Stop_Send>:
SPI_Stop_Send():
  103cf4:	00 04 ab 83 		MOVE	r3,0x7c	; 7c <RegSPIStart>
  103cf8:	00 0e 2b 80 		AND	r3,#0x7f
  103cfc:	00 01 bb 83 		MOVE	0x7c,r3	; 7c <RegSPIStart>
  103d00:	00 04 ab df 		MOVE	r3,0x20	; 20 <RegPCDOut>
  103d04:	00 0e bb ef 		OR	r3,#0x10
  103d08:	00 01 bb df 		MOVE	0x20,r3	; 20 <RegPCDOut>
  103d0c:	00 23 ff ff 		JUMP	ip

00103d10 <SPI_Start_Read>:
SPI_Start_Read():
  103d10:	00 16 af ff 		MOVE	a,-(i3,1)
  103d14:	00 04 ab f5 		MOVE	r3,0x0a	; a <RegPADIn>
  103d18:	00 0e 2b fb 		AND	r3,#0x4
  103d1c:	00 02 fb 00 		MOVE	(i3,0),r3
  103d20:	00 1e ac 00 		MOVE	r2,(i3,0)
  103d24:	00 36 f0 aa 		JZS	0x0f55		; 103d54 <SPI_Start_Read+0x44>
  103d28:	00 00 ff 81 		MOVE	0x7e,#0x00	; 7e <RegSPIDOut>
  103d2c:	00 04 ab 83 		MOVE	r3,0x7c	; 7c <RegSPIStart>
  103d30:	00 0e bb 7f 		OR	r3,#0x80
  103d34:	00 01 bb 83 		MOVE	0x7c,r3	; 7c <RegSPIStart>
  103d38:	00 04 ab 83 		MOVE	r3,0x7c	; 7c <RegSPIStart>
  103d3c:	00 0e 0b ff 		CMPA	r3,#0x0
  103d40:	00 35 f0 b1 		JLT	0x0f4e		; 103d38 <SPI_Start_Read+0x28>
  103d44:	00 04 ab df 		MOVE	r3,0x20	; 20 <RegPCDOut>
  103d48:	00 0e 2b 10 		AND	r3,#0xef
  103d4c:	00 01 bb df 		MOVE	0x20,r3	; 20 <RegPCDOut>
  103d50:	00 0e ac fe 		MOVE	r2,#0x1
  103d54:	00 16 af 01 		MOVE	a,(i3,1)+
  103d58:	00 23 ff ff 		JUMP	ip

00103d5c <SPI_Getc>:
SPI_Getc():
  103d5c:	00 16 af ff 		MOVE	a,-(i3,1)
  103d60:	00 00 ff 81 		MOVE	0x7e,#0x00	; 7e <RegSPIDOut>
  103d64:	00 04 ad 83 		MOVE	r1,0x7c	; 7c <RegSPIStart>
  103d68:	00 0e bd 7f 		OR	r1,#0x80
  103d6c:	00 01 bd 83 		MOVE	0x7c,r1	; 7c <RegSPIStart>
  103d70:	00 04 ad 83 		MOVE	r1,0x7c	; 7c <RegSPIStart>
  103d74:	00 0e 0d ff 		CMPA	r1,#0x0
  103d78:	00 35 f0 a3 		JLT	0x0f5c		; 103d70 <SPI_Getc+0x14>
  103d7c:	00 04 ad 82 		MOVE	r1,0x7d	; 7d <RegSPIDIn>
  103d80:	00 0c af c0 		MOVE	i0l,r2
  103d84:	00 0c af b1 		MOVE	i0h,r3
  103d88:	00 02 cd 00 		MOVE	(i0,0),r1
  103d8c:	00 04 ab f5 		MOVE	r3,0x0a	; a <RegPADIn>
  103d90:	00 02 fb 00 		MOVE	(i3,0),r3
  103d94:	00 1e ab 00 		MOVE	r3,(i3,0)
  103d98:	00 0c af bc 		MOVE	r2,r3
  103d9c:	00 0e ec bf 		MUL	r2,#0x40
  103da0:	00 0e 2c fe 		AND	r2,#0x1
  103da4:	00 16 af 01 		MOVE	a,(i3,1)+
  103da8:	00 23 ff ff 		JUMP	ip

00103dac <SPI_Stop_Read>:
SPI_Stop_Read():
  103dac:	00 04 ab 83 		MOVE	r3,0x7c	; 7c <RegSPIStart>
  103db0:	00 0e 2b 80 		AND	r3,#0x7f
  103db4:	00 01 bb 83 		MOVE	0x7c,r3	; 7c <RegSPIStart>
  103db8:	00 04 ab df 		MOVE	r3,0x20	; 20 <RegPCDOut>
  103dbc:	00 0e bb ef 		OR	r3,#0x10
  103dc0:	00 01 bb df 		MOVE	0x20,r3	; 20 <RegPCDOut>
  103dc4:	00 23 ff ff 		JUMP	ip

00103dc8 <InitTemperature>:
InitTemperature():
  103dc8:	00 16 af fc 		MOVE	a,-(i3,4)
  103dcc:	00 0e a1 90 		MOVE	i0h,#0x6f
  103dd0:	00 0e a0 1f 		MOVE	i0l,#0xe0
  103dd4:	00 18 af 1c 		MOVE	a,(i0,28)
  103dd8:	00 01 bf 21 		MOVE	0xde,a	; de <trimRCCompAt25+0x1>
  103ddc:	00 00 ff 22 		MOVE	0xdd,#0x00	; dd <trimRCCompAt25>
  103de0:	00 0e a1 90 		MOVE	i0h,#0x6f
  103de4:	00 0e a0 3f 		MOVE	i0l,#0xc0
  103de8:	00 18 af 00 		MOVE	a,(i0,0)
  103dec:	00 01 bf 27 		MOVE	0xd8,a	; d8 <trimRCCompAt60+0x1>
  103df0:	00 00 ff 28 		MOVE	0xd7,#0x00	; d7 <trimRCCompAt60>
  103df4:	00 18 ad 03 		MOVE	r1,(i0,3)
  103df8:	00 0e ae ff 		MOVE	r0,#0x0
  103dfc:	00 18 ac 02 		MOVE	r2,(i0,2)
  103e00:	00 0e ab ff 		MOVE	r3,#0x0
  103e04:	00 0c bb dd 		OR	r1,r1,r3
  103e08:	00 0c bc ee 		OR	r0,r0,r2
  103e0c:	00 01 bd 24 		MOVE	0xdb,r1	; db <temperatureCountsAt25>
  103e10:	00 01 be 23 		MOVE	0xdc,r0	; dc <temperatureCountsAt25+0x1>
  103e14:	00 18 a3 05 		MOVE	i1h,(i0,5)
  103e18:	00 0e a2 ff 		MOVE	i1l,#0x0
  103e1c:	00 18 ac 04 		MOVE	r2,(i0,4)
  103e20:	00 0e ab ff 		MOVE	r3,#0x0
  103e24:	00 0c bb 3b 		OR	r3,i1h,r3
  103e28:	00 0c bc 2c 		OR	r2,i1l,r2
  103e2c:	00 01 bb 20 		MOVE	0xdf,r3	; df <temperatureCountsAt60>
  103e30:	00 01 bc 1f 		MOVE	0xe0,r2	; e0 <setstat>
  103e34:	00 0c 4e cc 		SUBD	r2,r2,r0
  103e38:	00 0c 5d bb 		SUBDC	r3,r3,r1
  103e3c:	00 0c af ce 		MOVE	r0,r2
  103e40:	00 0c af bd 		MOVE	r1,r3
  103e44:	00 0c af dc 		MOVE	r2,r1
  103e48:	00 0e 6c fe 		MULA	r2,#0x1
  103e4c:	00 0c af cb 		MOVE	r3,r2
  103e50:	00 03 7e ff 		MOVE	-(i3,1),r0
  103e54:	00 03 7d ff 		MOVE	-(i3,1),r1
  103e58:	00 03 7c ff 		MOVE	-(i3,1),r2
  103e5c:	00 03 7b ff 		MOVE	-(i3,1),r3
  103e60:	00 0e ae 53 		MOVE	r0,#0xac
  103e64:	00 0e ad f2 		MOVE	r1,#0xd
  103e68:	00 0e ac ff 		MOVE	r2,#0x0
  103e6c:	00 0e ab ff 		MOVE	r3,#0x0
  103e70:	00 39 ec 8a 		CALL	0x1375		; 104dd4 <divmodsi4>
  103e74:	00 16 af 01 		MOVE	a,(i3,1)+
  103e78:	00 02 ff 03 		MOVE	(i3,3),a
  103e7c:	00 16 af 01 		MOVE	a,(i3,1)+
  103e80:	00 02 ff 03 		MOVE	(i3,3),a
  103e84:	00 16 af 01 		MOVE	a,(i3,1)+
  103e88:	00 02 ff 03 		MOVE	(i3,3),a
  103e8c:	00 16 af 01 		MOVE	a,(i3,1)+
  103e90:	00 02 ff 03 		MOVE	(i3,3),a
  103e94:	00 01 bd 1d 		MOVE	0xe2,r1	; e2 <scaleFactorx100>
  103e98:	00 01 be 1c 		MOVE	0xe3,r0	; e3 <scaleFactorx100+0x1>
  103e9c:	00 18 ab 09 		MOVE	r3,(i0,9)
  103ea0:	00 01 bb a5 		MOVE	0x5a,r3	; 5a <RegADCOffsetM>
  103ea4:	00 18 ab 08 		MOVE	r3,(i0,8)
  103ea8:	00 01 bb a6 		MOVE	0x59,r3	; 59 <RegADCOffsetL>
  103eac:	00 00 f6 1e 		MOVE	0xe1,#0x09	; e1 <TempIx>
  103eb0:	00 16 af 04 		MOVE	a,(i3,4)+
  103eb4:	00 23 ff ff 		JUMP	ip

00103eb8 <GetLastTemperatureCelsius>:
GetLastTemperatureCelsius():
  103eb8:	00 04 ab 1e 		MOVE	r3,0xe1	; e1 <TempIx>
  103ebc:	00 0e 0b f8 		CMPA	r3,#0x7
  103ec0:	00 34 f0 4b 		JLE	0x0fb4		; 103ed0 <GetLastTemperatureCelsius+0x18>
  103ec4:	00 0e ac ff 		MOVE	r2,#0x0
  103ec8:	00 0e ab ff 		MOVE	r3,#0x0
  103ecc:	00 33 f0 41 		JUMP	0x0fbe		; 103ef8 <GetLastTemperatureCelsius+0x40>
  103ed0:	00 0c af bc 		MOVE	r2,r3
  103ed4:	00 0e 6b fe 		MULA	r3,#0x1
  103ed8:	00 0c cc cc 		ADD	r2,r2,r2
  103edc:	00 0c db bb 		ADDC	r3,r3,r3
  103ee0:	00 0c af c0 		MOVE	i0l,r2
  103ee4:	00 0e c0 df 		ADD	i0l,#0x20
  103ee8:	00 0c af b1 		MOVE	i0h,r3
  103eec:	00 0e d1 fe 		ADDC	i0h,#0x1
  103ef0:	00 18 ac 01 		MOVE	r2,(i0,1)
  103ef4:	00 18 ab 00 		MOVE	r3,(i0,0)
  103ef8:	00 23 ff ff 		JUMP	ip

00103efc <TempCompensateClockFreq>:
TempCompensateClockFreq():
  103efc:	00 03 74 ff 		MOVE	-(i3,1),i2l
  103f00:	00 03 75 ff 		MOVE	-(i3,1),i2h
  103f04:	00 03 78 ff 		MOVE	-(i3,1),ipl
  103f08:	00 03 79 ff 		MOVE	-(i3,1),iph
  103f0c:	00 04 a2 25 		MOVE	i1l,0xda	; da <TSX+0x1>
  103f10:	00 04 a3 26 		MOVE	i1h,0xd9	; d9 <TSX>
  103f14:	00 04 a4 1f 		MOVE	i2l,0xe0	; e0 <setstat>
  103f18:	00 04 a5 20 		MOVE	i2h,0xdf	; df <temperatureCountsAt60>
  103f1c:	00 0c 42 4c 		SUBD	r2,i2l,i1l
  103f20:	00 0c 53 5b 		SUBDC	r3,i2h,i1h
  103f24:	00 04 ae 21 		MOVE	r0,0xde	; de <trimRCCompAt25+0x1>
  103f28:	00 04 ad 22 		MOVE	r1,0xdd	; dd <trimRCCompAt25>
  103f2c:	00 39 ec 1b 		CALL	0x13e4		; 104f90 <mulhisi3>
  103f30:	00 0c af e0 		MOVE	i0l,r0
  103f34:	00 0c af d1 		MOVE	i0h,r1
  103f38:	00 0c af c8 		MOVE	ipl,r2
  103f3c:	00 0c af b9 		MOVE	iph,r3
  103f40:	00 0c af 2c 		MOVE	r2,i1l
  103f44:	00 04 3c 23 		SUBS	r2,0xdc	; dc <temperatureCountsAt25+0x1>
  103f48:	00 0c af 3b 		MOVE	r3,i1h
  103f4c:	00 04 7b 24 		SUBSC	r3,0xdb	; db <temperatureCountsAt25>
  103f50:	00 04 ae 27 		MOVE	r0,0xd8	; d8 <trimRCCompAt60+0x1>
  103f54:	00 04 ad 28 		MOVE	r1,0xd7	; d7 <trimRCCompAt60>
  103f58:	00 39 ec 1b 		CALL	0x13e4		; 104f90 <mulhisi3>
  103f5c:	00 0c ce 00 		ADD	i0l,i0l,r0
  103f60:	00 0c dd 11 		ADDC	i0h,i0h,r1
  103f64:	00 0c dc 88 		ADDC	ipl,ipl,r2
  103f68:	00 0c db 99 		ADDC	iph,iph,r3
  103f6c:	00 04 34 23 		SUBS	i2l,0xdc	; dc <temperatureCountsAt25+0x1>
  103f70:	00 04 75 24 		SUBSC	i2h,0xdb	; db <temperatureCountsAt25>
  103f74:	00 0c af 4e 		MOVE	r0,i2l
  103f78:	00 0c af 5d 		MOVE	r1,i2h
  103f7c:	00 0c af dc 		MOVE	r2,r1
  103f80:	00 0e 6c fe 		MULA	r2,#0x1
  103f84:	00 0c af cb 		MOVE	r3,r2
  103f88:	00 03 7e ff 		MOVE	-(i3,1),r0
  103f8c:	00 03 7d ff 		MOVE	-(i3,1),r1
  103f90:	00 03 7c ff 		MOVE	-(i3,1),r2
  103f94:	00 03 7b ff 		MOVE	-(i3,1),r3
  103f98:	00 0c af 9b 		MOVE	r3,iph
  103f9c:	00 0c af 8c 		MOVE	r2,ipl
  103fa0:	00 0c af 1d 		MOVE	r1,i0h
  103fa4:	00 0c af 0e 		MOVE	r0,i0l
  103fa8:	00 39 ec 8a 		CALL	0x1375		; 104dd4 <divmodsi4>
  103fac:	00 16 a9 01 		MOVE	iph,(i3,1)+
  103fb0:	00 16 a8 01 		MOVE	ipl,(i3,1)+
  103fb4:	00 16 a1 01 		MOVE	i0h,(i3,1)+
  103fb8:	00 16 a0 01 		MOVE	i0l,(i3,1)+
  103fbc:	00 0c af db 		MOVE	r3,r1
  103fc0:	00 0c af ec 		MOVE	r2,r0
  103fc4:	00 0e 0d ff 		CMPA	r1,#0x0
  103fc8:	00 32 f0 0b 		JNE	0x0ff4		; 103fd0 <TempCompensateClockFreq+0xd4>
  103fcc:	00 0e 1e 00 		CMP	r0,#0xff
  103fd0:	00 34 f0 08 		JLE	0x0ff7		; 103fdc <TempCompensateClockFreq+0xe0>
  103fd4:	00 0e ac 00 		MOVE	r2,#0xff
  103fd8:	00 0e ab ff 		MOVE	r3,#0x0
  103fdc:	00 0e fb 7f 		TSTPAT	r3,#0x80
  103fe0:	00 36 f0 04 		JZS	0x0ffb		; 103fec <TempCompensateClockFreq+0xf0>
  103fe4:	00 0e ac ff 		MOVE	r2,#0x0
  103fe8:	00 0e ab ff 		MOVE	r3,#0x0
  103fec:	00 0e a1 fd 		MOVE	i0h,#0x2
  103ff0:	00 0e a0 5c 		MOVE	i0l,#0xa3
  103ff4:	00 02 cc 00 		MOVE	(i0,0),r2
  103ff8:	00 16 a9 01 		MOVE	iph,(i3,1)+
  103ffc:	00 16 a8 01 		MOVE	ipl,(i3,1)+
  104000:	00 16 a5 01 		MOVE	i2h,(i3,1)+
  104004:	00 16 a4 01 		MOVE	i2l,(i3,1)+
  104008:	00 23 ff ff 		JUMP	ip

0010400c <InternalTemperature>:
InternalTemperature():
  10400c:	00 03 78 ff 		MOVE	-(i3,1),ipl
  104010:	00 03 79 ff 		MOVE	-(i3,1),iph
  104014:	00 16 af fe 		MOVE	a,-(i3,2)
  104018:	00 04 ab aa 		MOVE	r3,0x55	; 55 <RegADCCfg1>
  10401c:	00 0e bb fe 		OR	r3,#0x1
  104020:	00 01 bb aa 		MOVE	0x55,r3	; 55 <RegADCCfg1>
  104024:	00 04 ab a9 		MOVE	r3,0x56	; 56 <RegADCCfg2>
  104028:	00 0e 2b 30 		AND	r3,#0xcf
  10402c:	00 01 bb a9 		MOVE	0x56,r3	; 56 <RegADCCfg2>
  104030:	00 0e a1 90 		MOVE	i0h,#0x6f
  104034:	00 0e a0 3f 		MOVE	i0l,#0xc0
  104038:	00 18 ab 09 		MOVE	r3,(i0,9)
  10403c:	00 01 bb a5 		MOVE	0x5a,r3	; 5a <RegADCOffsetM>
  104040:	00 18 ab 08 		MOVE	r3,(i0,8)
  104044:	00 01 bb a6 		MOVE	0x59,r3	; 59 <RegADCOffsetL>
  104048:	00 04 ab aa 		MOVE	r3,0x55	; 55 <RegADCCfg1>
  10404c:	00 0e bb 7f 		OR	r3,#0x80
  104050:	00 01 bb aa 		MOVE	0x55,r3	; 55 <RegADCCfg1>
  104054:	00 04 ab 9b 		MOVE	r3,0x64	; 64 <RegInt0Msk>
  104058:	00 0e bb ef 		OR	r3,#0x10
  10405c:	00 01 bb 9b 		MOVE	0x64,r3	; 64 <RegInt0Msk>
  104060:	00 04 ab aa 		MOVE	r3,0x55	; 55 <RegADCCfg1>
  104064:	00 0e bb ef 		OR	r3,#0x10
  104068:	00 01 bb aa 		MOVE	0x55,r3	; 55 <RegADCCfg1>
  10406c:	00 0e ac f5 		MOVE	r2,#0xa
  104070:	00 0e ab ff 		MOVE	r3,#0x0
  104074:	00 3a f8 30 		CALLS	0x07cf		; 101f3c <WaitNmSec>
  104078:	00 04 ab aa 		MOVE	r3,0x55	; 55 <RegADCCfg1>
  10407c:	00 0e 2b 60 		AND	r3,#0x9f
  104080:	00 0e bb df 		OR	r3,#0x20
  104084:	00 01 bb aa 		MOVE	0x55,r3	; 55 <RegADCCfg1>
  104088:	00 04 ab ff 		MOVE	r3,0x00	; 0 <RegSysCfg1>
  10408c:	00 0e 2b 80 		AND	r3,#0x7f
  104090:	00 01 bb ff 		MOVE	0x00,r3	; 0 <RegSysCfg1>
  104094:	00 0b df ff 		HALT
  104098:	00 04 ab a7 		MOVE	r3,0x58	; 58 <RegADCOut1>
  10409c:	00 02 fb 00 		MOVE	(i3,0),r3
  1040a0:	00 04 ab a8 		MOVE	r3,0x57	; 57 <RegADCOut0>
  1040a4:	00 02 fb 01 		MOVE	(i3,1),r3
  1040a8:	00 04 ab 9b 		MOVE	r3,0x64	; 64 <RegInt0Msk>
  1040ac:	00 0e 2b 10 		AND	r3,#0xef
  1040b0:	00 01 bb 9b 		MOVE	0x64,r3	; 64 <RegInt0Msk>
  1040b4:	00 04 ab aa 		MOVE	r3,0x55	; 55 <RegADCCfg1>
  1040b8:	00 0e 2b 10 		AND	r3,#0xef
  1040bc:	00 01 bb aa 		MOVE	0x55,r3	; 55 <RegADCCfg1>
  1040c0:	00 04 ab aa 		MOVE	r3,0x55	; 55 <RegADCCfg1>
  1040c4:	00 0e 2b 80 		AND	r3,#0x7f
  1040c8:	00 01 bb aa 		MOVE	0x55,r3	; 55 <RegADCCfg1>
  1040cc:	00 1e ab 01 		MOVE	r3,(i3,1)
  1040d0:	00 0e eb f7 		MUL	r3,#0x8
  1040d4:	00 0c af fc 		MOVE	r2,a
  1040d8:	00 0e 2b f8 		AND	r3,#0x7
  1040dc:	00 0e 2c 07 		AND	r2,#0xf8
  1040e0:	00 01 bb 26 		MOVE	0xd9,r3	; d9 <TSX>
  1040e4:	00 01 bc 25 		MOVE	0xda,r2	; da <TSX+0x1>
  1040e8:	00 16 af 02 		MOVE	a,(i3,2)+
  1040ec:	00 16 a9 01 		MOVE	iph,(i3,1)+
  1040f0:	00 16 a8 01 		MOVE	ipl,(i3,1)+
  1040f4:	00 23 ff ff 		JUMP	ip

001040f8 <MeasureTemperature>:
MeasureTemperature():
  1040f8:	00 03 78 ff 		MOVE	-(i3,1),ipl
  1040fc:	00 03 79 ff 		MOVE	-(i3,1),iph
  104100:	00 16 af f8 		MOVE	a,-(i3,8)
  104104:	00 3a ef fc 		CALLS	0x1003		; 10400c <InternalTemperature>
  104108:	00 3a f0 40 		CALLS	0x0fbf		; 103efc <TempCompensateClockFreq>
  10410c:	00 04 ac 1c 		MOVE	r2,0xe3	; e3 <scaleFactorx100+0x1>
  104110:	00 04 ab 1d 		MOVE	r3,0xe2	; e2 <scaleFactorx100>
  104114:	00 0e ae 00 		MOVE	r0,#0xff
  104118:	00 0e ad ff 		MOVE	r1,#0x0
  10411c:	00 39 ec 1b 		CALL	0x13e4		; 104f90 <mulhisi3>
  104120:	00 02 fb 00 		MOVE	(i3,0),r3
  104124:	00 02 fc 01 		MOVE	(i3,1),r2
  104128:	00 02 fd 02 		MOVE	(i3,2),r1
  10412c:	00 02 fe 03 		MOVE	(i3,3),r0
  104130:	00 04 ae 25 		MOVE	r0,0xda	; da <TSX+0x1>
  104134:	00 04 3e 23 		SUBS	r0,0xdc	; dc <temperatureCountsAt25+0x1>
  104138:	00 04 ad 26 		MOVE	r1,0xd9	; d9 <TSX>
  10413c:	00 04 7d 24 		SUBSC	r1,0xdb	; db <temperatureCountsAt25>
  104140:	00 0c af e8 		MOVE	ipl,r0
  104144:	00 0c af d9 		MOVE	iph,r1
  104148:	00 0c af 9e 		MOVE	r0,iph
  10414c:	00 0e 6e fe 		MULA	r0,#0x1
  104150:	00 0c af ed 		MOVE	r1,r0
  104154:	00 1e af 03 		MOVE	a,(i3,3)
  104158:	00 03 7f ff 		MOVE	-(i3,1),a
  10415c:	00 1e af 03 		MOVE	a,(i3,3)
  104160:	00 03 7f ff 		MOVE	-(i3,1),a
  104164:	00 1e af 03 		MOVE	a,(i3,3)
  104168:	00 03 7f ff 		MOVE	-(i3,1),a
  10416c:	00 1e af 03 		MOVE	a,(i3,3)
  104170:	00 03 7f ff 		MOVE	-(i3,1),a
  104174:	00 03 78 ff 		MOVE	-(i3,1),ipl
  104178:	00 03 79 ff 		MOVE	-(i3,1),iph
  10417c:	00 03 7e ff 		MOVE	-(i3,1),r0
  104180:	00 03 7d ff 		MOVE	-(i3,1),r1
  104184:	00 39 ec 03 		CALL	0x13fc		; 104ff0 <mulsi3>
  104188:	00 16 af 08 		MOVE	a,(i3,8)+
  10418c:	00 0e af 9b 		MOVE	a,#0x64
  104190:	00 03 7f ff 		MOVE	-(i3,1),a
  104194:	00 0e af ff 		MOVE	a,#0x0
  104198:	00 03 7f ff 		MOVE	-(i3,1),a
  10419c:	00 0e af ff 		MOVE	a,#0x0
  1041a0:	00 03 7f ff 		MOVE	-(i3,1),a
  1041a4:	00 0e af ff 		MOVE	a,#0x0
  1041a8:	00 03 7f ff 		MOVE	-(i3,1),a
  1041ac:	00 39 ec 8a 		CALL	0x1375		; 104dd4 <divmodsi4>
  1041b0:	00 16 af 04 		MOVE	a,(i3,4)+
  1041b4:	00 0e cd e6 		ADD	r1,#0x19
  1041b8:	00 0d 5f cc 		INCC	r2,r2
  1041bc:	00 0d 5f bb 		INCC	r3,r3
  1041c0:	00 04 a1 1e 		MOVE	i0h,0xe1	; e1 <TempIx>
  1041c4:	00 0e 01 f8 		CMPA	i0h,#0x7
  1041c8:	00 34 ef 6f 		JLE	0x1090		; 104240 <MeasureTemperature+0x148>
  1041cc:	00 0e a1 fe 		MOVE	i0h,#0x1
  1041d0:	00 0e a0 df 		MOVE	i0l,#0x20
  1041d4:	00 0e a9 ff 		MOVE	iph,#0x0
  1041d8:	00 33 ef 85 		JUMP	0x107a		; 1041e8 <MeasureTemperature+0xf0>
  1041dc:	00 03 4d 01 		MOVE	(i0,1)+,r1
  1041e0:	00 03 4e 01 		MOVE	(i0,1)+,r0
  1041e4:	00 0d 1f 99 		INC	iph,iph
  1041e8:	00 0e 09 f8 		CMPA	iph,#0x7
  1041ec:	00 34 ef 88 		JLE	0x1077		; 1041dc <MeasureTemperature+0xe4>
  1041f0:	00 03 71 ff 		MOVE	-(i3,1),i0h
  1041f4:	00 0c af b1 		MOVE	i0h,r3
  1041f8:	00 0c af cb 		MOVE	r3,r2
  1041fc:	00 0c af dc 		MOVE	r2,r1
  104200:	00 0c af ed 		MOVE	r1,r0
  104204:	00 0e ed f7 		MUL	r1,#0x8
  104208:	00 0c af fe 		MOVE	r0,a
  10420c:	00 0e ec f7 		MUL	r2,#0x8
  104210:	00 0c bd fd 		OR	r1,a,r1
  104214:	00 0e eb f7 		MUL	r3,#0x8
  104218:	00 0c bc fc 		OR	r2,a,r2
  10421c:	00 0e e1 f7 		MUL	i0h,#0x8
  104220:	00 0c bb fb 		OR	r3,a,r3
  104224:	00 16 a1 01 		MOVE	i0h,(i3,1)+
  104228:	00 01 bb 1b 		MOVE	0xe4,r3	; e4 <AccumulatedTemp>
  10422c:	00 01 bc 1a 		MOVE	0xe5,r2	; e5 <AccumulatedTemp+0x1>
  104230:	00 01 bd 19 		MOVE	0xe6,r1	; e6 <AccumulatedTemp+0x2>
  104234:	00 01 be 18 		MOVE	0xe7,r0	; e7 <AccumulatedTemp+0x3>
  104238:	00 00 f8 1e 		MOVE	0xe1,#0x07	; e1 <TempIx>
  10423c:	00 33 ef 43 		JUMP	0x10bc		; 1042f0 <MeasureTemperature+0x1f8>
  104240:	00 0d 1f 11 		INC	i0h,i0h
  104244:	00 0e 21 f8 		AND	i0h,#0x7
  104248:	00 01 b1 1e 		MOVE	0xe1,i0h	; e1 <TempIx>
  10424c:	00 0c af 10 		MOVE	i0l,i0h
  104250:	00 0e 61 fe 		MULA	i0h,#0x1
  104254:	00 0c af ef 		MOVE	a,r0
  104258:	00 04 cf 18 		ADD	a,0xe7	; e7 <AccumulatedTemp+0x3>
  10425c:	00 02 ff 03 		MOVE	(i3,3),a
  104260:	00 0c af df 		MOVE	a,r1
  104264:	00 04 df 19 		ADDC	a,0xe6	; e6 <AccumulatedTemp+0x2>
  104268:	00 02 ff 02 		MOVE	(i3,2),a
  10426c:	00 0c af cf 		MOVE	a,r2
  104270:	00 04 df 1a 		ADDC	a,0xe5	; e5 <AccumulatedTemp+0x1>
  104274:	00 02 ff 01 		MOVE	(i3,1),a
  104278:	00 0c af bf 		MOVE	a,r3
  10427c:	00 04 df 1b 		ADDC	a,0xe4	; e4 <AccumulatedTemp>
  104280:	00 02 ff 00 		MOVE	(i3,0),a
  104284:	00 0c c0 00 		ADD	i0l,i0l,i0l
  104288:	00 0c d1 11 		ADDC	i0h,i0h,i0h
  10428c:	00 0e c0 df 		ADD	i0l,#0x20
  104290:	00 0e d1 fe 		ADDC	i0h,#0x1
  104294:	00 18 af 01 		MOVE	a,(i0,1)
  104298:	00 02 ff 07 		MOVE	(i3,7),a
  10429c:	00 18 af 00 		MOVE	a,(i0,0)
  1042a0:	00 02 ff 06 		MOVE	(i3,6),a
  1042a4:	00 0e 2f 7f 		AND	a,#0x80
  1042a8:	00 36 ef 53 		JZS	0x10ac		; 1042b0 <MeasureTemperature+0x1b8>
  1042ac:	00 0e af 00 		MOVE	a,#0xff
  1042b0:	00 02 ff 05 		MOVE	(i3,5),a
  1042b4:	00 02 ff 04 		MOVE	(i3,4),a
  1042b8:	00 1e af 03 		MOVE	a,(i3,3)
  1042bc:	00 1e 3f 07 		SUBS	a,(i3,7)
  1042c0:	00 01 bf 18 		MOVE	0xe7,a	; e7 <AccumulatedTemp+0x3>
  1042c4:	00 1e af 02 		MOVE	a,(i3,2)
  1042c8:	00 1e 7f 06 		SUBSC	a,(i3,6)
  1042cc:	00 01 bf 19 		MOVE	0xe6,a	; e6 <AccumulatedTemp+0x2>
  1042d0:	00 1e af 01 		MOVE	a,(i3,1)
  1042d4:	00 1e 7f 05 		SUBSC	a,(i3,5)
  1042d8:	00 01 bf 1a 		MOVE	0xe5,a	; e5 <AccumulatedTemp+0x1>
  1042dc:	00 1e af 00 		MOVE	a,(i3,0)
  1042e0:	00 1e 7f 04 		SUBSC	a,(i3,4)
  1042e4:	00 01 bf 1b 		MOVE	0xe4,a	; e4 <AccumulatedTemp>
  1042e8:	00 02 cd 00 		MOVE	(i0,0),r1
  1042ec:	00 02 ce 01 		MOVE	(i0,1),r0
  1042f0:	00 05 0b 1b 		SHRA	r3,0xe4	; e4 <AccumulatedTemp>
  1042f4:	00 05 4c 1a 		SHRC	r2,0xe5	; e5 <AccumulatedTemp+0x1>
  1042f8:	00 05 4d 19 		SHRC	r1,0xe6	; e6 <AccumulatedTemp+0x2>
  1042fc:	00 05 4e 18 		SHRC	r0,0xe7	; e7 <AccumulatedTemp+0x3>
  104300:	00 0e ee bf 		MUL	r0,#0x40
  104304:	00 0e ed bf 		MUL	r1,#0x40
  104308:	00 0c be fe 		OR	r0,a,r0
  10430c:	00 0e ec bf 		MUL	r2,#0x40
  104310:	00 0c bd fd 		OR	r1,a,r1
  104314:	00 0e 6b bf 		MULA	r3,#0x40
  104318:	00 0c bc fc 		OR	r2,a,r2
  10431c:	00 0e a1 90 		MOVE	i0h,#0x6f
  104320:	00 0e a0 bf 		MOVE	i0l,#0x40
  104324:	00 0c af ef 		MOVE	a,r0
  104328:	00 18 cf 22 		ADD	a,(i0,34)
  10432c:	00 01 bf 57 		MOVE	0xa8,a	; a8 <mTemperatureReading+0x1>
  104330:	00 0c af df 		MOVE	a,r1
  104334:	00 18 df 21 		ADDC	a,(i0,33)
  104338:	00 01 bf 58 		MOVE	0xa7,a	; a7 <mTemperatureReading>
  10433c:	00 0c af db 		MOVE	r3,r1
  104340:	00 0c af ec 		MOVE	r2,r0
  104344:	00 16 af 08 		MOVE	a,(i3,8)+
  104348:	00 16 a9 01 		MOVE	iph,(i3,1)+
  10434c:	00 16 a8 01 		MOVE	ipl,(i3,1)+
  104350:	00 23 ff ff 		JUMP	ip

00104354 <Calc_CRC_Data_Apl>:
Calc_CRC_Data_Apl():
c:/soft/rkit/code/nvm/old/librairie_nvm_asm_for_revision_d/calc_crc_data_apl.s:8
  104354:	00 33 d8 09 		JUMP	0x27f6		; 109fd8 <_eprom+0x4490>

00104358 <GetStaticIdDataPacket>:
  104358:	00 0e ac ff 		MOVE	r2,#0x0
  10435c:	00 0e ab ff 		MOVE	r3,#0x0
  104360:	00 23 ff ff 		JUMP	ip

00104364 <UpdateDynamicIdPacketData>:
  104364:	00 23 ff ff 		JUMP	ip

00104368 <SetStaticEddyStoneData>:
  104368:	00 23 ff ff 		JUMP	ip

0010436c <UpdateDynamicEddyStoneData>:
  10436c:	00 23 ff ff 		JUMP	ip

00104370 <UpdateDynamicEddystonePacketData>:
  104370:	00 03 78 ff 		MOVE	-(i3,1),ipl
  104374:	00 03 79 ff 		MOVE	-(i3,1),iph
  104378:	00 16 af fc 		MOVE	a,-(i3,4)
  10437c:	00 3a ee 4b 		CALLS	0x11b4		; 1046d0 <GetRssi>
  104380:	00 0e cc d6 		ADD	r2,#0x29
  104384:	00 01 bc 56 		MOVE	0xa9,r2	; a9 <eddystone_tx_power>
  104388:	00 05 1f 14 		INC	a,0xeb	; eb <eddystone_AdvertisingCount+0x3>
  10438c:	00 01 bf 14 		MOVE	0xeb,a	; eb <eddystone_AdvertisingCount+0x3>
  104390:	00 05 5f 15 		INCC	a,0xea	; ea <eddystone_AdvertisingCount+0x2>
  104394:	00 01 bf 15 		MOVE	0xea,a	; ea <eddystone_AdvertisingCount+0x2>
  104398:	00 05 5f 16 		INCC	a,0xe9	; e9 <eddystone_AdvertisingCount+0x1>
  10439c:	00 01 bf 16 		MOVE	0xe9,a	; e9 <eddystone_AdvertisingCount+0x1>
  1043a0:	00 05 5f 17 		INCC	a,0xe8	; e8 <eddystone_AdvertisingCount>
  1043a4:	00 01 bf 17 		MOVE	0xe8,a	; e8 <eddystone_AdvertisingCount>
  1043a8:	00 04 af 13 		MOVE	a,0xec	; ec <eddystone_UpTime>
  1043ac:	00 02 ff 00 		MOVE	(i3,0),a
  1043b0:	00 04 af 12 		MOVE	a,0xed	; ed <eddystone_UpTime+0x1>
  1043b4:	00 02 ff 01 		MOVE	(i3,1),a
  1043b8:	00 04 af 11 		MOVE	a,0xee	; ee <eddystone_UpTime+0x2>
  1043bc:	00 02 ff 02 		MOVE	(i3,2),a
  1043c0:	00 04 af 10 		MOVE	a,0xef	; ef <eddystone_UpTime+0x3>
  1043c4:	00 02 ff 03 		MOVE	(i3,3),a
  1043c8:	00 3a f7 d7 		CALLS	0x0828		; 1020a0 <GetIntervalFromMode>
  1043cc:	00 0e af 9b 		MOVE	a,#0x64
  1043d0:	00 03 7f ff 		MOVE	-(i3,1),a
  1043d4:	00 0e af ff 		MOVE	a,#0x0
  1043d8:	00 03 7f ff 		MOVE	-(i3,1),a
  1043dc:	00 0e af ff 		MOVE	a,#0x0
  1043e0:	00 03 7f ff 		MOVE	-(i3,1),a
  1043e4:	00 0e af ff 		MOVE	a,#0x0
  1043e8:	00 03 7f ff 		MOVE	-(i3,1),a
  1043ec:	00 39 eb c1 		CALL	0x143e		; 1050f8 <udivmodsi4>
  1043f0:	00 16 af 04 		MOVE	a,(i3,4)+
  1043f4:	00 0c af ef 		MOVE	a,r0
  1043f8:	00 1e cf 03 		ADD	a,(i3,3)
  1043fc:	00 01 bf 10 		MOVE	0xef,a	; ef <eddystone_UpTime+0x3>
  104400:	00 0c af df 		MOVE	a,r1
  104404:	00 1e df 02 		ADDC	a,(i3,2)
  104408:	00 01 bf 11 		MOVE	0xee,a	; ee <eddystone_UpTime+0x2>
  10440c:	00 0c af cf 		MOVE	a,r2
  104410:	00 1e df 01 		ADDC	a,(i3,1)
  104414:	00 01 bf 12 		MOVE	0xed,a	; ed <eddystone_UpTime+0x1>
  104418:	00 0c af bf 		MOVE	a,r3
  10441c:	00 1e df 00 		ADDC	a,(i3,0)
  104420:	00 01 bf 13 		MOVE	0xec,a	; ec <eddystone_UpTime>
  104424:	00 16 af 04 		MOVE	a,(i3,4)+
  104428:	00 16 a9 01 		MOVE	iph,(i3,1)+
  10442c:	00 16 a8 01 		MOVE	ipl,(i3,1)+
  104430:	00 23 ff ff 		JUMP	ip

00104434 <GetEddyStonePacketRef>:
  104434:	00 03 74 ff 		MOVE	-(i3,1),i2l
  104438:	00 03 75 ff 		MOVE	-(i3,1),i2h
  10443c:	00 03 78 ff 		MOVE	-(i3,1),ipl
  104440:	00 03 79 ff 		MOVE	-(i3,1),iph
  104444:	00 16 af fb 		MOVE	a,-(i3,5)
  104448:	00 0c af bc 		MOVE	r2,r3
  10444c:	00 0e ab ff 		MOVE	r3,#0x0
  104450:	00 0c af ce 		MOVE	r0,r2
  104454:	00 0e 2e ef 		AND	r0,#0x10
  104458:	00 0e ad ff 		MOVE	r1,#0x0
  10445c:	00 0c be df 		OR	a,r1,r0
  104460:	00 36 ee bd 		JZS	0x1142		; 104508 <GetEddyStonePacketRef+0xd4>
  104464:	00 0e a1 fe 		MOVE	i0h,#0x1
  104468:	00 0e a0 5a 		MOVE	i0l,#0xa5
  10446c:	00 0e af e5 		MOVE	a,#0x1a
  104470:	00 02 cf 02 		MOVE	(i0,2),a
  104474:	00 0e af e6 		MOVE	a,#0x19
  104478:	00 02 cf 03 		MOVE	(i0,3),a
  10447c:	00 0e af ee 		MOVE	a,#0x11
  104480:	00 02 cf 0b 		MOVE	(i0,11),a
  104484:	00 0e af 55 		MOVE	a,#0xaa
  104488:	00 02 cf 0d 		MOVE	(i0,13),a
  10448c:	00 0e af 01 		MOVE	a,#0xfe
  104490:	00 02 cf 0e 		MOVE	(i0,14),a
  104494:	00 0e af df 		MOVE	a,#0x20
  104498:	00 02 cf 0f 		MOVE	(i0,15),a
  10449c:	00 0e af ff 		MOVE	a,#0x0
  1044a0:	00 02 cf 10 		MOVE	(i0,16),a
  1044a4:	00 04 af 5a 		MOVE	a,0xa5	; a5 <mBatteryMilliVolt>
  1044a8:	00 02 cf 11 		MOVE	(i0,17),a
  1044ac:	00 04 af 59 		MOVE	a,0xa6	; a6 <mBatteryMilliVolt+0x1>
  1044b0:	00 02 cf 12 		MOVE	(i0,18),a
  1044b4:	00 04 af 58 		MOVE	a,0xa7	; a7 <mTemperatureReading>
  1044b8:	00 02 cf 13 		MOVE	(i0,19),a
  1044bc:	00 04 af 57 		MOVE	a,0xa8	; a8 <mTemperatureReading+0x1>
  1044c0:	00 02 cf 14 		MOVE	(i0,20),a
  1044c4:	00 04 af 17 		MOVE	a,0xe8	; e8 <eddystone_AdvertisingCount>
  1044c8:	00 02 cf 15 		MOVE	(i0,21),a
  1044cc:	00 04 af 16 		MOVE	a,0xe9	; e9 <eddystone_AdvertisingCount+0x1>
  1044d0:	00 02 cf 16 		MOVE	(i0,22),a
  1044d4:	00 04 af 15 		MOVE	a,0xea	; ea <eddystone_AdvertisingCount+0x2>
  1044d8:	00 02 cf 17 		MOVE	(i0,23),a
  1044dc:	00 04 af 14 		MOVE	a,0xeb	; eb <eddystone_AdvertisingCount+0x3>
  1044e0:	00 02 cf 18 		MOVE	(i0,24),a
  1044e4:	00 04 af 13 		MOVE	a,0xec	; ec <eddystone_UpTime>
  1044e8:	00 02 cf 19 		MOVE	(i0,25),a
  1044ec:	00 04 af 12 		MOVE	a,0xed	; ed <eddystone_UpTime+0x1>
  1044f0:	00 02 cf 1a 		MOVE	(i0,26),a
  1044f4:	00 04 af 11 		MOVE	a,0xee	; ee <eddystone_UpTime+0x2>
  1044f8:	00 02 cf 1b 		MOVE	(i0,27),a
  1044fc:	00 04 af 10 		MOVE	a,0xef	; ef <eddystone_UpTime+0x3>
  104500:	00 02 cf 1c 		MOVE	(i0,28),a
  104504:	00 33 ee 5f 		JUMP	0x11a0		; 104680 <GetEddyStonePacketRef+0x24c>
  104508:	00 0c af ce 		MOVE	r0,r2
  10450c:	00 0e 2e df 		AND	r0,#0x20
  104510:	00 0e ad ff 		MOVE	r1,#0x0
  104514:	00 0c be df 		OR	a,r1,r0
  104518:	00 36 ee 86 		JZS	0x1179		; 1045e4 <GetEddyStonePacketRef+0x1b0>
  10451c:	00 0e a1 fe 		MOVE	i0h,#0x1
  104520:	00 0e a0 5a 		MOVE	i0l,#0xa5
  104524:	00 0e af df 		MOVE	a,#0x20
  104528:	00 02 cf 02 		MOVE	(i0,2),a
  10452c:	00 0e af e0 		MOVE	a,#0x1f
  104530:	00 02 cf 03 		MOVE	(i0,3),a
  104534:	00 0e af e8 		MOVE	a,#0x17
  104538:	00 02 cf 0b 		MOVE	(i0,11),a
  10453c:	00 0e af 55 		MOVE	a,#0xaa
  104540:	00 02 cf 0d 		MOVE	(i0,13),a
  104544:	00 0e af 01 		MOVE	a,#0xfe
  104548:	00 02 cf 0e 		MOVE	(i0,14),a
  10454c:	00 0e af ff 		MOVE	a,#0x0
  104550:	00 02 cf 0f 		MOVE	(i0,15),a
  104554:	00 04 af 56 		MOVE	a,0xa9	; a9 <eddystone_tx_power>
  104558:	00 02 cf 10 		MOVE	(i0,16),a
  10455c:	00 0e a5 90 		MOVE	i2h,#0x6f
  104560:	00 0e a4 bf 		MOVE	i2l,#0x40
  104564:	00 0e af ff 		MOVE	a,#0x0
  104568:	00 02 ff 00 		MOVE	(i3,0),a
  10456c:	00 0e af f5 		MOVE	a,#0xa
  104570:	00 02 ff 01 		MOVE	(i3,1),a
  104574:	00 0c af 0c 		MOVE	r2,i0l
  104578:	00 0e cc ee 		ADD	r2,#0x11
  10457c:	00 0d 5f 1b 		INCC	r3,i0h
  104580:	00 0c af 4e 		MOVE	r0,i2l
  104584:	00 0e ce dc 		ADD	r0,#0x23
  104588:	00 0d 5f 5d 		INCC	r1,i2h
  10458c:	00 02 f1 03 		MOVE	(i3,3),i0h
  104590:	00 02 f0 04 		MOVE	(i3,4),i0l
  104594:	00 3a ec a4 		CALLS	0x135b		; 104d6c <memcpy>
  104598:	00 1e a1 03 		MOVE	i0h,(i3,3)
  10459c:	00 1e a0 04 		MOVE	i0l,(i3,4)
  1045a0:	00 1c af 2d 		MOVE	a,(i2,45)
  1045a4:	00 02 cf 1b 		MOVE	(i0,27),a
  1045a8:	00 1c af 2e 		MOVE	a,(i2,46)
  1045ac:	00 02 cf 1c 		MOVE	(i0,28),a
  1045b0:	00 1c af 2f 		MOVE	a,(i2,47)
  1045b4:	00 02 cf 1d 		MOVE	(i0,29),a
  1045b8:	00 1c af 30 		MOVE	a,(i2,48)
  1045bc:	00 02 cf 1e 		MOVE	(i0,30),a
  1045c0:	00 1c af 31 		MOVE	a,(i2,49)
  1045c4:	00 02 cf 1f 		MOVE	(i0,31),a
  1045c8:	00 1c af 32 		MOVE	a,(i2,50)
  1045cc:	00 02 cf 20 		MOVE	(i0,32),a
  1045d0:	00 0e af ff 		MOVE	a,#0x0
  1045d4:	00 02 cf 21 		MOVE	(i0,33),a
  1045d8:	00 0e af ff 		MOVE	a,#0x0
  1045dc:	00 02 cf 22 		MOVE	(i0,34),a
  1045e0:	00 33 ee 5f 		JUMP	0x11a0		; 104680 <GetEddyStonePacketRef+0x24c>
  1045e4:	00 0e 2c f7 		AND	r2,#0x8
  1045e8:	00 0e ab ff 		MOVE	r3,#0x0
  1045ec:	00 0c bc bf 		OR	a,r3,r2
  1045f0:	00 36 ee 5f 		JZS	0x11a0		; 104680 <GetEddyStonePacketRef+0x24c>
  1045f4:	00 0e a5 fe 		MOVE	i2h,#0x1
  1045f8:	00 0e a4 5a 		MOVE	i2l,#0xa5
  1045fc:	00 0e af 55 		MOVE	a,#0xaa
  104600:	00 02 ef 0d 		MOVE	(i2,13),a
  104604:	00 0e af 01 		MOVE	a,#0xfe
  104608:	00 02 ef 0e 		MOVE	(i2,14),a
  10460c:	00 0e af ef 		MOVE	a,#0x10
  104610:	00 02 ef 0f 		MOVE	(i2,15),a
  104614:	00 04 af 56 		MOVE	a,0xa9	; a9 <eddystone_tx_power>
  104618:	00 02 ef 10 		MOVE	(i2,16),a
  10461c:	00 0e a1 90 		MOVE	i0h,#0x6f
  104620:	00 0e a0 bf 		MOVE	i0l,#0x40
  104624:	00 18 af 33 		MOVE	a,(i0,51)
  104628:	00 02 ef 11 		MOVE	(i2,17),a
  10462c:	00 18 af 34 		MOVE	a,(i0,52)
  104630:	00 02 ff 02 		MOVE	(i3,2),a
  104634:	00 0e af ff 		MOVE	a,#0x0
  104638:	00 02 ff 00 		MOVE	(i3,0),a
  10463c:	00 1e af 02 		MOVE	a,(i3,2)
  104640:	00 02 ff 01 		MOVE	(i3,1),a
  104644:	00 0c af 4c 		MOVE	r2,i2l
  104648:	00 0e cc ed 		ADD	r2,#0x12
  10464c:	00 0d 5f 5b 		INCC	r3,i2h
  104650:	00 0c af 0e 		MOVE	r0,i0l
  104654:	00 0e ce ca 		ADD	r0,#0x35
  104658:	00 0d 5f 1d 		INCC	r1,i0h
  10465c:	00 3a ec a4 		CALLS	0x135b		; 104d6c <memcpy>
  104660:	00 1e ab 02 		MOVE	r3,(i3,2)
  104664:	00 0e 4b ee 		SUBD	r3,#0x11
  104668:	00 0e 4f df 		SUBD	a,#0x20
  10466c:	00 02 ef 02 		MOVE	(i2,2),a
  104670:	00 0e 1b e0 		CMP	r3,#0x1f
  104674:	00 02 ef 03 		MOVE	(i2,3),a
  104678:	00 0e 4b e8 		SUBD	r3,#0x17
  10467c:	00 02 eb 0b 		MOVE	(i2,11),r3
  104680:	00 0e ab fe 		MOVE	r3,#0x1
  104684:	00 0e ac 5a 		MOVE	r2,#0xa5
  104688:	00 16 af 05 		MOVE	a,(i3,5)+
  10468c:	00 16 a9 01 		MOVE	iph,(i3,1)+
  104690:	00 16 a8 01 		MOVE	ipl,(i3,1)+
  104694:	00 16 a5 01 		MOVE	i2h,(i3,1)+
  104698:	00 16 a4 01 		MOVE	i2l,(i3,1)+
  10469c:	00 23 ff ff 		JUMP	ip

001046a0 <GetRssiTable>:
  1046a0:	00 04 ac 3a 		MOVE	r2,0xc5	; c5 <SEL_RC2>
  1046a4:	00 04 ab 3b 		MOVE	r3,0xc4	; c4 <EM9301_Rev>
  1046a8:	00 0e 1b f9 		CMP	r3,#0x6
  1046ac:	00 32 ee 51 		JNE	0x11ae		; 1046b8 <GetRssiTable+0x18>
  1046b0:	00 0e 1c e6 		CMP	r2,#0x19
  1046b4:	00 36 ee 4e 		JEQ	0x11b1		; 1046c4 <GetRssiTable+0x24>
  1046b8:	00 0e ab 91 		MOVE	r3,#0x6e
  1046bc:	00 0e ac e9 		MOVE	r2,#0x16
  1046c0:	00 33 ee 4c 		JUMP	0x11b3		; 1046cc <GetRssiTable+0x2c>
  1046c4:	00 0e ab 91 		MOVE	r3,#0x6e
  1046c8:	00 0e ac f1 		MOVE	r2,#0xe
  1046cc:	00 23 ff ff 		JUMP	ip

001046d0 <GetRssi>:
  1046d0:	00 03 74 ff 		MOVE	-(i3,1),i2l
  1046d4:	00 03 75 ff 		MOVE	-(i3,1),i2h
  1046d8:	00 03 78 ff 		MOVE	-(i3,1),ipl
  1046dc:	00 03 79 ff 		MOVE	-(i3,1),iph
  1046e0:	00 0c af b5 		MOVE	i2h,r3
  1046e4:	00 3a ee 57 		CALLS	0x11a8		; 1046a0 <GetRssiTable>
  1046e8:	00 0e 15 f8 		CMP	i2h,#0x7
  1046ec:	00 34 ee 42 		JLE	0x11bd		; 1046f4 <GetRssi+0x24>
  1046f0:	00 0e a5 f8 		MOVE	i2h,#0x7
  1046f4:	00 0c af 54 		MOVE	i2l,i2h
  1046f8:	00 0e a5 ff 		MOVE	i2h,#0x0
  1046fc:	00 0c c4 c4 		ADD	i2l,r2,i2l
  104700:	00 0c d5 b5 		ADDC	i2h,r3,i2h
  104704:	00 1c ac 00 		MOVE	r2,(i2,0)
  104708:	00 16 a9 01 		MOVE	iph,(i3,1)+
  10470c:	00 16 a8 01 		MOVE	ipl,(i3,1)+
  104710:	00 16 a5 01 		MOVE	i2h,(i3,1)+
  104714:	00 16 a4 01 		MOVE	i2l,(i3,1)+
  104718:	00 23 ff ff 		JUMP	ip

0010471c <getBeaconMode>:
  10471c:	00 04 ac 0e 		MOVE	r2,0xf1	; f1 <beaconMode+0x1>
  104720:	00 04 ab 0f 		MOVE	r3,0xf0	; f0 <beaconMode>
  104724:	00 23 ff ff 		JUMP	ip

00104728 <getBeaconModeIdx>:
  104728:	00 04 ac 0d 		MOVE	r2,0xf2	; f2 <beaconModeIdx>
  10472c:	00 23 ff ff 		JUMP	ip

00104730 <beaconing>:
  104730:	00 04 ac 0e 		MOVE	r2,0xf1	; f1 <beaconMode+0x1>
  104734:	00 0e 2c c0 		AND	r2,#0x3f
  104738:	00 23 ff ff 		JUMP	ip

0010473c <InitializeBeaconMaskRing>:
  10473c:	00 0e af fe 		MOVE	a,#0x1
  104740:	00 01 bf c9 		MOVE	0x36,a	; 36 <RegDoCEn>
  104744:	00 0e af cf 		MOVE	a,#0x30
  104748:	00 01 bf c8 		MOVE	0x37,a	; 37 <RegDoCStat>
  10474c:	00 0c af bc 		MOVE	r2,r3
  104750:	00 0e ab ff 		MOVE	r3,#0x0
  104754:	00 0c af ce 		MOVE	r0,r2
  104758:	00 0e 2e fe 		AND	r0,#0x1
  10475c:	00 0e ad ff 		MOVE	r1,#0x0
  104760:	00 0c be df 		OR	a,r1,r0
  104764:	00 36 ee 1d 		JZS	0x11e2		; 104788 <InitializeBeaconMaskRing+0x4c>
  104768:	00 0e a1 fe 		MOVE	i0h,#0x1
  10476c:	00 0e a0 cf 		MOVE	i0l,#0x30
  104770:	00 0e af fe 		MOVE	a,#0x1
  104774:	00 02 cf 00 		MOVE	(i0,0),a
  104778:	00 0d 1f 0f 		INC	a,i0l
  10477c:	00 01 bf c8 		MOVE	0x37,a	; 37 <RegDoCStat>
  104780:	00 0d 5f 1f 		INCC	a,i0h
  104784:	00 01 bf c9 		MOVE	0x36,a	; 36 <RegDoCEn>
  104788:	00 0c af ce 		MOVE	r0,r2
  10478c:	00 0e 2e fd 		AND	r0,#0x2
  104790:	00 0e ad ff 		MOVE	r1,#0x0
  104794:	00 0c be df 		OR	a,r1,r0
  104798:	00 36 ee 10 		JZS	0x11ef		; 1047bc <InitializeBeaconMaskRing+0x80>
  10479c:	00 04 a0 c8 		MOVE	i0l,0x37	; 37 <RegDoCStat>
  1047a0:	00 04 a1 c9 		MOVE	i0h,0x36	; 36 <RegDoCEn>
  1047a4:	00 0e af fd 		MOVE	a,#0x2
  1047a8:	00 02 cf 00 		MOVE	(i0,0),a
  1047ac:	00 0d 1f 0f 		INC	a,i0l
  1047b0:	00 01 bf c8 		MOVE	0x37,a	; 37 <RegDoCStat>
  1047b4:	00 0d 5f 1f 		INCC	a,i0h
  1047b8:	00 01 bf c9 		MOVE	0x36,a	; 36 <RegDoCEn>
  1047bc:	00 0c af ce 		MOVE	r0,r2
  1047c0:	00 0e 2e fb 		AND	r0,#0x4
  1047c4:	00 0e ad ff 		MOVE	r1,#0x0
  1047c8:	00 0c be df 		OR	a,r1,r0
  1047cc:	00 36 ee 03 		JZS	0x11fc		; 1047f0 <InitializeBeaconMaskRing+0xb4>
  1047d0:	00 04 a0 c8 		MOVE	i0l,0x37	; 37 <RegDoCStat>
  1047d4:	00 04 a1 c9 		MOVE	i0h,0x36	; 36 <RegDoCEn>
  1047d8:	00 0e af fb 		MOVE	a,#0x4
  1047dc:	00 02 cf 00 		MOVE	(i0,0),a
  1047e0:	00 0d 1f 0f 		INC	a,i0l
  1047e4:	00 01 bf c8 		MOVE	0x37,a	; 37 <RegDoCStat>
  1047e8:	00 0d 5f 1f 		INCC	a,i0h
  1047ec:	00 01 bf c9 		MOVE	0x36,a	; 36 <RegDoCEn>
  1047f0:	00 0c af ce 		MOVE	r0,r2
  1047f4:	00 0e 2e f7 		AND	r0,#0x8
  1047f8:	00 0e ad ff 		MOVE	r1,#0x0
  1047fc:	00 0c be df 		OR	a,r1,r0
  104800:	00 36 ed f6 		JZS	0x1209		; 104824 <InitializeBeaconMaskRing+0xe8>
  104804:	00 04 a0 c8 		MOVE	i0l,0x37	; 37 <RegDoCStat>
  104808:	00 04 a1 c9 		MOVE	i0h,0x36	; 36 <RegDoCEn>
  10480c:	00 0e af f7 		MOVE	a,#0x8
  104810:	00 02 cf 00 		MOVE	(i0,0),a
  104814:	00 0d 1f 0f 		INC	a,i0l
  104818:	00 01 bf c8 		MOVE	0x37,a	; 37 <RegDoCStat>
  10481c:	00 0d 5f 1f 		INCC	a,i0h
  104820:	00 01 bf c9 		MOVE	0x36,a	; 36 <RegDoCEn>
  104824:	00 0c af ce 		MOVE	r0,r2
  104828:	00 0e 2e df 		AND	r0,#0x20
  10482c:	00 0e ad ff 		MOVE	r1,#0x0
  104830:	00 0c be df 		OR	a,r1,r0
  104834:	00 36 ed e9 		JZS	0x1216		; 104858 <InitializeBeaconMaskRing+0x11c>
  104838:	00 04 a0 c8 		MOVE	i0l,0x37	; 37 <RegDoCStat>
  10483c:	00 04 a1 c9 		MOVE	i0h,0x36	; 36 <RegDoCEn>
  104840:	00 0e af df 		MOVE	a,#0x20
  104844:	00 02 cf 00 		MOVE	(i0,0),a
  104848:	00 0d 1f 0f 		INC	a,i0l
  10484c:	00 01 bf c8 		MOVE	0x37,a	; 37 <RegDoCStat>
  104850:	00 0d 5f 1f 		INCC	a,i0h
  104854:	00 01 bf c9 		MOVE	0x36,a	; 36 <RegDoCEn>
  104858:	00 0e 2c ef 		AND	r2,#0x10
  10485c:	00 0e ab ff 		MOVE	r3,#0x0
  104860:	00 0c bc bf 		OR	a,r3,r2
  104864:	00 36 ed dd 		JZS	0x1222		; 104888 <InitializeBeaconMaskRing+0x14c>
  104868:	00 04 a0 c8 		MOVE	i0l,0x37	; 37 <RegDoCStat>
  10486c:	00 04 a1 c9 		MOVE	i0h,0x36	; 36 <RegDoCEn>
  104870:	00 0e af ef 		MOVE	a,#0x10
  104874:	00 02 cf 00 		MOVE	(i0,0),a
  104878:	00 0d 1f 0f 		INC	a,i0l
  10487c:	00 01 bf c8 		MOVE	0x37,a	; 37 <RegDoCStat>
  104880:	00 0d 5f 1f 		INCC	a,i0h
  104884:	00 01 bf c9 		MOVE	0x36,a	; 36 <RegDoCEn>
  104888:	00 04 af c9 		MOVE	a,0x36	; 36 <RegDoCEn>
  10488c:	00 01 bf c7 		MOVE	0x38,a	; 38 <RegCRC16DIn>
  104890:	00 04 af c8 		MOVE	a,0x37	; 37 <RegDoCStat>
  104894:	00 01 bf c6 		MOVE	0x39,a	; 39 <RegCRC16L>
  104898:	00 23 ff ff 		JUMP	ip

0010489c <RotateModeMask>:
  10489c:	00 05 1c c6 		INC	r2,0x39	; 39 <RegCRC16L>
  1048a0:	00 05 5b c7 		INCC	r3,0x38	; 38 <RegCRC16DIn>
  1048a4:	00 01 bb c7 		MOVE	0x38,r3	; 38 <RegCRC16DIn>
  1048a8:	00 01 bc c6 		MOVE	0x39,r2	; 39 <RegCRC16L>
  1048ac:	00 04 1b c9 		CMP	r3,0x36	; 36 <RegDoCEn>
  1048b0:	00 32 ed d1 		JNE	0x122e		; 1048b8 <RotateModeMask+0x1c>
  1048b4:	00 04 1c c8 		CMP	r2,0x37	; 37 <RegDoCStat>
  1048b8:	00 35 ed cc 		JLT	0x1233		; 1048cc <RotateModeMask+0x30>
  1048bc:	00 0e af fe 		MOVE	a,#0x1
  1048c0:	00 01 bf c7 		MOVE	0x38,a	; 38 <RegCRC16DIn>
  1048c4:	00 0e af cf 		MOVE	a,#0x30
  1048c8:	00 01 bf c6 		MOVE	0x39,a	; 39 <RegCRC16L>
  1048cc:	00 04 a0 c6 		MOVE	i0l,0x39	; 39 <RegCRC16L>
  1048d0:	00 04 a1 c7 		MOVE	i0h,0x38	; 38 <RegCRC16DIn>
  1048d4:	00 18 ac 00 		MOVE	r2,(i0,0)
  1048d8:	00 23 ff ff 		JUMP	ip

001048dc <GetMode>:
  1048dc:	00 04 ae 54 		MOVE	r0,0xab	; ab <advMachines>
  1048e0:	00 0e ad ff 		MOVE	r1,#0x0
  1048e4:	00 0e 2e fc 		AND	r0,#0x3
  1048e8:	00 0e ad ff 		MOVE	r1,#0x0
  1048ec:	00 0e 1d ff 		CMP	r1,#0x0
  1048f0:	00 32 ed c0 		JNE	0x123f		; 1048fc <GetMode+0x20>
  1048f4:	00 0e 1e fd 		CMP	r0,#0x2
  1048f8:	00 36 ed b3 		JEQ	0x124c		; 104930 <GetMode+0x54>
  1048fc:	00 0c af bc 		MOVE	r2,r3
  104900:	00 0e ab ff 		MOVE	r3,#0x0
  104904:	00 0e 1d ff 		CMP	r1,#0x0
  104908:	00 32 ed ba 		JNE	0x1245		; 104914 <GetMode+0x38>
  10490c:	00 0e 1e fc 		CMP	r0,#0x3
  104910:	00 36 ed aa 		JEQ	0x1255		; 104954 <GetMode+0x78>
  104914:	00 0c cc cc 		ADD	r2,r2,r2
  104918:	00 0c db bb 		ADDC	r3,r3,r3
  10491c:	00 0c af c0 		MOVE	i0l,r2
  104920:	00 0e c0 e1 		ADD	i0l,#0x1e
  104924:	00 0c af b1 		MOVE	i0h,r3
  104928:	00 0e d1 91 		ADDC	i0h,#0x6e
  10492c:	00 33 ed a4 		JUMP	0x125b		; 10496c <GetMode+0x90>
  104930:	00 0c af bc 		MOVE	r2,r3
  104934:	00 0e ab ff 		MOVE	r3,#0x0
  104938:	00 0c cc cc 		ADD	r2,r2,r2
  10493c:	00 0c db bb 		ADDC	r3,r3,r3
  104940:	00 0c af c0 		MOVE	i0l,r2
  104944:	00 0e c0 db 		ADD	i0l,#0x24
  104948:	00 0c af b1 		MOVE	i0h,r3
  10494c:	00 0e d1 91 		ADDC	i0h,#0x6e
  104950:	00 33 ed a4 		JUMP	0x125b		; 10496c <GetMode+0x90>
  104954:	00 0c cc cc 		ADD	r2,r2,r2
  104958:	00 0c db bb 		ADDC	r3,r3,r3
  10495c:	00 0c af c0 		MOVE	i0l,r2
  104960:	00 0e c0 d1 		ADD	i0l,#0x2e
  104964:	00 0c af b1 		MOVE	i0h,r3
  104968:	00 0e d1 91 		ADDC	i0h,#0x6e
  10496c:	00 18 ac 01 		MOVE	r2,(i0,1)
  104970:	00 18 ab 00 		MOVE	r3,(i0,0)
  104974:	00 23 ff ff 		JUMP	ip

00104978 <NextMode>:
  104978:	00 03 74 ff 		MOVE	-(i3,1),i2l
  10497c:	00 03 75 ff 		MOVE	-(i3,1),i2h
  104980:	00 03 78 ff 		MOVE	-(i3,1),ipl
  104984:	00 03 79 ff 		MOVE	-(i3,1),iph
  104988:	00 05 1b 0d 		INC	r3,0xf2	; f2 <beaconModeIdx>
  10498c:	00 01 bb 0d 		MOVE	0xf2,r3	; f2 <beaconModeIdx>
  104990:	00 3a ed c8 		CALLS	0x1237		; 1048dc <GetMode>
  104994:	00 0e 1b 00 		CMP	r3,#0xff
  104998:	00 32 ed 93 		JNE	0x126c		; 1049b0 <NextMode+0x38>
  10499c:	00 0e 1c 00 		CMP	r2,#0xff
  1049a0:	00 32 ed 93 		JNE	0x126c		; 1049b0 <NextMode+0x38>
  1049a4:	00 00 ff 0d 		MOVE	0xf2,#0x00	; f2 <beaconModeIdx>
  1049a8:	00 0e ab ff 		MOVE	r3,#0x0
  1049ac:	00 3a ed c8 		CALLS	0x1237		; 1048dc <GetMode>
  1049b0:	00 04 a4 55 		MOVE	i2l,0xaa	; aa <MON_DUMP>
  1049b4:	00 0e a5 ff 		MOVE	i2h,#0x0
  1049b8:	00 0e b4 3f 		OR	i2l,#0xc0
  1049bc:	00 0e a5 00 		MOVE	i2h,#0xff
  1049c0:	00 0c 25 b5 		AND	i2h,r3,i2h
  1049c4:	00 0c 24 c4 		AND	i2l,r2,i2l
  1049c8:	00 0c af 4b 		MOVE	r3,i2l
  1049cc:	00 3a ee 30 		CALLS	0x11cf		; 10473c <InitializeBeaconMaskRing>
  1049d0:	00 01 b5 0f 		MOVE	0xf0,i2h	; f0 <beaconMode>
  1049d4:	00 01 b4 0e 		MOVE	0xf1,i2l	; f1 <beaconMode+0x1>
  1049d8:	00 16 a9 01 		MOVE	iph,(i3,1)+
  1049dc:	00 16 a8 01 		MOVE	ipl,(i3,1)+
  1049e0:	00 16 a5 01 		MOVE	i2h,(i3,1)+
  1049e4:	00 16 a4 01 		MOVE	i2l,(i3,1)+
  1049e8:	00 23 ff ff 		JUMP	ip

001049ec <_GASP_INLINE_WAIT_FOR_EVENT>:
  1049ec:	00 04 af 94 		MOVE	a,0x6b	; 6b <RegEvtSts>
  1049f0:	00 0e ff fe 		TSTPAT	a,#0x1
  1049f4:	00 36 ed 84 		JZS	0x127b		; 1049ec <_GASP_INLINE_WAIT_FOR_EVENT>
  1049f8:	00 0e 2a 01 		AND	stat,#0xfe
  1049fc:	00 23 ff ff 		JUMP	ip

00104a00 <__GASP_receive_byte>:
  104a00:	00 04 af 94 		MOVE	a,0x6b	; 6b <RegEvtSts>
  104a04:	00 0e ff fe 		TSTPAT	a,#0x1
  104a08:	00 36 ed 7f 		JZS	0x1280		; 104a00 <__GASP_receive_byte>
  104a0c:	00 0e 2a 01 		AND	stat,#0xfe
  104a10:	00 04 ae d4 		MOVE	r0,0x2b	; 2b <RegGaspDIn>

00104a14 <__GASP_send_byte>:
  104a14:	00 01 be d3 		MOVE	0x2c,r0	; 2c <RegGaspDOut>

00104a18 <__GASP_send_byte_wait_for_event>:
  104a18:	00 04 af 94 		MOVE	a,0x6b	; 6b <RegEvtSts>
  104a1c:	00 0e ff fe 		TSTPAT	a,#0x1
  104a20:	00 36 ed 79 		JZS	0x1286		; 104a18 <__GASP_send_byte_wait_for_event>
  104a24:	00 0e 2a 01 		AND	stat,#0xfe
  104a28:	00 23 ff ff 		JUMP	ip

00104a2c <__GASP_receive_word_i0>:
  104a2c:	00 03 78 ff 		MOVE	-(i3,1),ipl
  104a30:	00 03 79 ff 		MOVE	-(i3,1),iph
  104a34:	00 3a ed 7f 		CALLS	0x1280		; 104a00 <__GASP_receive_byte>
  104a38:	00 0c af e0 		MOVE	i0l,r0
  104a3c:	00 3a ed 7f 		CALLS	0x1280		; 104a00 <__GASP_receive_byte>
  104a40:	00 0c af e1 		MOVE	i0h,r0

00104a44 <__GASP_receive_word_i0_ret>:
  104a44:	00 16 a9 01 		MOVE	iph,(i3,1)+
  104a48:	00 16 a8 01 		MOVE	ipl,(i3,1)+
  104a4c:	00 23 ff ff 		JUMP	ip

00104a50 <__GASP_send_word_i0>:
  104a50:	00 03 78 ff 		MOVE	-(i3,1),ipl
  104a54:	00 03 79 ff 		MOVE	-(i3,1),iph
  104a58:	00 0c af 1e 		MOVE	r0,i0h
  104a5c:	00 3a ed 7a 		CALLS	0x1285		; 104a14 <__GASP_send_byte>
  104a60:	00 0c af 0e 		MOVE	r0,i0l
  104a64:	00 3a ed 7a 		CALLS	0x1285		; 104a14 <__GASP_send_byte>
  104a68:	00 33 ed 6e 		JUMP	0x1291		; 104a44 <__GASP_receive_word_i0_ret>

00104a6c <_GASP_DOC_Monitor_Reset>:
  104a6c:	00 00 f1 9b 		MOVE	0x64,#0x0e	; 64 <RegInt0Msk>
  104a70:	00 00 f1 98 		MOVE	0x67,#0x0e	; 67 <RegInt0PostMsk>
  104a74:	00 0e a7 fe 		MOVE	i3h,#0x1
  104a78:	00 0e a6 df 		MOVE	i3l,#0x20
  104a7c:	00 33 ed 57 		JUMP	0x12a8		; 104aa0 <Handle_Irq_Gasp>

00104a80 <EM6819_Monitor_Dyn_Soft_Break>:
  104a80:	00 00 f7 9e 		MOVE	0x61,#0x08	; 61 <RegInt0Sts>
  104a84:	00 3f 3f ff 		RET

00104a88 <EM6819_Monitor_Soft_Break>:
  104a88:	00 00 fd 9e 		MOVE	0x61,#0x02	; 61 <RegInt0Sts>
  104a8c:	00 3f 3f ff 		RET

00104a90 <Handle_Irq_DoCDM>:
  104a90:	00 3e bf ff 		POP
  104a94:	00 0d bf 88 		DEC	ipl,ipl
  104a98:	00 0d ff 99 		DECC	iph,iph

00104a9c <Handle_Irq_DoCxM_PUSH>:
  104a9c:	00 2d ff ff 		PUSH

00104aa0 <Handle_Irq_Gasp>:
  104aa0:	00 04 af 93 		MOVE	a,0x6c	; 6c <RegEvtCfg>
  104aa4:	00 03 7f ff 		MOVE	-(i3,1),a
  104aa8:	00 00 fc 93 		MOVE	0x6c,#0x03	; 6c <RegEvtCfg>
  104aac:	00 0e 2a 05 		AND	stat,#0xfa
  104ab0:	00 0c af af 		MOVE	a,stat
  104ab4:	00 0e bf df 		OR	a,#0x20
  104ab8:	00 03 7f ff 		MOVE	-(i3,1),a
  104abc:	00 0e aa ff 		MOVE	stat,#0x0
  104ac0:	00 00 35 91 		MOVE	0x6e,#0xca	; 6e <RegWDKey>
  104ac4:	00 00 7f 92 		MOVE	0x6d,#0x80	; 6d <RegWDCfg>
  104ac8:	00 04 af fb 		MOVE	a,0x04	; 4 <RegClockCfg2>
  104acc:	00 03 7f ff 		MOVE	-(i3,1),a
  104ad0:	00 04 af fc 		MOVE	a,0x03	; 3 <RegClockCfg1>
  104ad4:	00 03 7f ff 		MOVE	-(i3,1),a
  104ad8:	00 04 af fc 		MOVE	a,0x03	; 3 <RegClockCfg1>
  104adc:	00 0e 2f 3f 		AND	a,#0xc0
  104ae0:	00 0e bf e7 		OR	a,#0x18
  104ae4:	00 01 bf fc 		MOVE	0x03,a	; 3 <RegClockCfg1>
  104ae8:	00 00 ff fb 		MOVE	0x04,#0x00	; 4 <RegClockCfg2>
  104aec:	00 04 af ff 		MOVE	a,0x00	; 0 <RegSysCfg1>
  104af0:	00 03 7f ff 		MOVE	-(i3,1),a
  104af4:	00 0e 2f c0 		AND	a,#0x3f
  104af8:	00 0e bf fd 		OR	a,#0x2
  104afc:	00 01 bf ff 		MOVE	0x00,a	; 0 <RegSysCfg1>
  104b00:	00 00 99 d3 		MOVE	0x2c,#0x66	; 2c <RegGaspDOut>
  104b04:	00 3a ed 84 		CALLS	0x127b		; 1049ec <_GASP_INLINE_WAIT_FOR_EVENT>
  104b08:	00 00 99 d3 		MOVE	0x2c,#0x66	; 2c <RegGaspDOut>
  104b0c:	00 3a ed 84 		CALLS	0x127b		; 1049ec <_GASP_INLINE_WAIT_FOR_EVENT>
  104b10:	00 00 99 d3 		MOVE	0x2c,#0x66	; 2c <RegGaspDOut>
  104b14:	00 3a ed 84 		CALLS	0x127b		; 1049ec <_GASP_INLINE_WAIT_FOR_EVENT>
  104b18:	00 00 66 d3 		MOVE	0x2c,#0x99	; 2c <RegGaspDOut>
  104b1c:	00 3a ed 84 		CALLS	0x127b		; 1049ec <_GASP_INLINE_WAIT_FOR_EVENT>
  104b20:	00 01 be d3 		MOVE	0x2c,r0	; 2c <RegGaspDOut>
  104b24:	00 3a ed 84 		CALLS	0x127b		; 1049ec <_GASP_INLINE_WAIT_FOR_EVENT>
  104b28:	00 16 ae 01 		MOVE	r0,(i3,1)+
  104b2c:	00 3a ed 7a 		CALLS	0x1285		; 104a14 <__GASP_send_byte>
  104b30:	00 16 ae 01 		MOVE	r0,(i3,1)+
  104b34:	00 3a ed 7a 		CALLS	0x1285		; 104a14 <__GASP_send_byte>
  104b38:	00 16 ae 01 		MOVE	r0,(i3,1)+
  104b3c:	00 3a ed 7a 		CALLS	0x1285		; 104a14 <__GASP_send_byte>
  104b40:	00 16 ae 01 		MOVE	r0,(i3,1)+
  104b44:	00 3a ed 7a 		CALLS	0x1285		; 104a14 <__GASP_send_byte>
  104b48:	00 16 ae 01 		MOVE	r0,(i3,1)+
  104b4c:	00 3a ed 7a 		CALLS	0x1285		; 104a14 <__GASP_send_byte>
  104b50:	00 16 ae 01 		MOVE	r0,(i3,1)+
  104b54:	00 3a ed 7a 		CALLS	0x1285		; 104a14 <__GASP_send_byte>
  104b58:	00 16 ae 01 		MOVE	r0,(i3,1)+
  104b5c:	00 3a ed 7a 		CALLS	0x1285		; 104a14 <__GASP_send_byte>
  104b60:	00 16 ae 01 		MOVE	r0,(i3,1)+
  104b64:	00 3a ed 7a 		CALLS	0x1285		; 104a14 <__GASP_send_byte>
  104b68:	00 16 ae 01 		MOVE	r0,(i3,1)+
  104b6c:	00 3a ed 7a 		CALLS	0x1285		; 104a14 <__GASP_send_byte>
  104b70:	00 3a ed 6b 		CALLS	0x1294		; 104a50 <__GASP_send_word_i0>
  104b74:	00 0c af 31 		MOVE	i0h,i1h
  104b78:	00 0c af 20 		MOVE	i0l,i1l
  104b7c:	00 3a ed 6b 		CALLS	0x1294		; 104a50 <__GASP_send_word_i0>
  104b80:	00 0c af 51 		MOVE	i0h,i2h
  104b84:	00 0c af 40 		MOVE	i0l,i2l
  104b88:	00 3a ed 6b 		CALLS	0x1294		; 104a50 <__GASP_send_word_i0>
  104b8c:	00 0c af 71 		MOVE	i0h,i3h
  104b90:	00 0c af 60 		MOVE	i0l,i3l
  104b94:	00 3a ed 6b 		CALLS	0x1294		; 104a50 <__GASP_send_word_i0>
  104b98:	00 0c af d1 		MOVE	i0h,r1
  104b9c:	00 0c af c0 		MOVE	i0l,r2
  104ba0:	00 3a ed 6b 		CALLS	0x1294		; 104a50 <__GASP_send_word_i0>
  104ba4:	00 0c af be 		MOVE	r0,r3
  104ba8:	00 3a ed 7a 		CALLS	0x1285		; 104a14 <__GASP_send_byte>
  104bac:	00 04 ae d4 		MOVE	r0,0x2b	; 2b <RegGaspDIn>
  104bb0:	00 04 ae 9e 		MOVE	r0,0x61	; 61 <RegInt0Sts>
  104bb4:	00 0e 2e 07 		AND	r0,#0xf8
  104bb8:	00 01 be 9e 		MOVE	0x61,r0	; 61 <RegInt0Sts>

00104bbc <__GASP_DOC_main_loop>:
  104bbc:	00 3a ed 7f 		CALLS	0x1280		; 104a00 <__GASP_receive_byte>
  104bc0:	00 0e 1e fe 		CMP	r0,#0x1
  104bc4:	00 32 ed 0a 		JNE	0x12f5		; 104bd4 <__GASP_Not_Monitor_Command_1>

00104bc8 <__GASP_Monitor_Command_1_version>:
  104bc8:	00 0e ae ee 		MOVE	r0,#0x11
  104bcc:	00 3a ed 7a 		CALLS	0x1285		; 104a14 <__GASP_send_byte>
  104bd0:	00 33 ed 10 		JUMP	0x12ef		; 104bbc <__GASP_DOC_main_loop>

00104bd4 <__GASP_Not_Monitor_Command_1>:
  104bd4:	00 0e 1e fd 		CMP	r0,#0x2
  104bd8:	00 32 ec fc 		JNE	0x1303		; 104c0c <__GASP_Not_Monitor_Command_2>

00104bdc <__GASP_Monitor_Command_2_read>:
  104bdc:	00 3a ed 74 		CALLS	0x128b		; 104a2c <__GASP_receive_word_i0>
  104be0:	00 0c af 02 		MOVE	i1l,i0l
  104be4:	00 0c af 13 		MOVE	i1h,i0h
  104be8:	00 3a ed 74 		CALLS	0x128b		; 104a2c <__GASP_receive_word_i0>

00104bec <__GASP_Monitor_Command_2_read_loop>:
  104bec:	00 12 ae 01 		MOVE	r0,(i1,1)+
  104bf0:	00 3a ed 7a 		CALLS	0x1285		; 104a14 <__GASP_send_byte>
  104bf4:	00 0d bf 00 		DEC	i0l,i0l
  104bf8:	00 0d ff 11 		DECC	i0h,i0h
  104bfc:	00 32 ed 04 		JZC	0x12fb		; 104bec <__GASP_Monitor_Command_2_read_loop>
  104c00:	00 0e 10 ff 		CMP	i0l,#0x0
  104c04:	00 32 ed 04 		JNE	0x12fb		; 104bec <__GASP_Monitor_Command_2_read_loop>
  104c08:	00 33 ed 10 		JUMP	0x12ef		; 104bbc <__GASP_DOC_main_loop>

00104c0c <__GASP_Not_Monitor_Command_2>:
  104c0c:	00 0e 1e fc 		CMP	r0,#0x3
  104c10:	00 32 ec ee 		JNE	0x1311		; 104c44 <__GASP_Monitor_Not_Command_3>

00104c14 <__GASP_Monitor_Command_3_write>:
  104c14:	00 3a ed 74 		CALLS	0x128b		; 104a2c <__GASP_receive_word_i0>
  104c18:	00 0c af 02 		MOVE	i1l,i0l
  104c1c:	00 0c af 13 		MOVE	i1h,i0h
  104c20:	00 3a ed 74 		CALLS	0x128b		; 104a2c <__GASP_receive_word_i0>

00104c24 <__GASP_Monitor_Command_3_write_loop>:
  104c24:	00 3a ed 7f 		CALLS	0x1280		; 104a00 <__GASP_receive_byte>
  104c28:	00 03 5e 01 		MOVE	(i1,1)+,r0
  104c2c:	00 0d bf 00 		DEC	i0l,i0l
  104c30:	00 0d ff 11 		DECC	i0h,i0h
  104c34:	00 32 ec f6 		JZC	0x1309		; 104c24 <__GASP_Monitor_Command_3_write_loop>
  104c38:	00 0e 10 ff 		CMP	i0l,#0x0
  104c3c:	00 32 ec f6 		JNE	0x1309		; 104c24 <__GASP_Monitor_Command_3_write_loop>
  104c40:	00 33 ed 10 		JUMP	0x12ef		; 104bbc <__GASP_DOC_main_loop>

00104c44 <__GASP_Monitor_Not_Command_3>:
  104c44:	00 0e 1e fb 		CMP	r0,#0x4
  104c48:	00 32 ec e7 		JNE	0x1318		; 104c60 <__GASP_Monitor_Not_Command_4>

00104c4c <__GASP_Monitor_Command_4_exec>:
  104c4c:	00 3a ed 74 		CALLS	0x128b		; 104a2c <__GASP_receive_word_i0>
  104c50:	00 0c af 19 		MOVE	iph,i0h
  104c54:	00 0c af 08 		MOVE	ipl,i0l
  104c58:	00 2a ff ff 		CALLS	ip
  104c5c:	00 33 ed 10 		JUMP	0x12ef		; 104bbc <__GASP_DOC_main_loop>

00104c60 <__GASP_Monitor_Not_Command_4>:
  104c60:	00 0e 1e fa 		CMP	r0,#0x5
  104c64:	00 32 ec e0 		JNE	0x131f		; 104c7c <__GASP_Monitor_Not_Command_5>

00104c68 <__GASP_Monitor_Command_5_hwpop>:
  104c68:	00 3e bf ff 		POP
  104c6c:	00 0c af 91 		MOVE	i0h,iph
  104c70:	00 0c af 80 		MOVE	i0l,ipl
  104c74:	00 3a ed 6b 		CALLS	0x1294		; 104a50 <__GASP_send_word_i0>
  104c78:	00 33 ed 10 		JUMP	0x12ef		; 104bbc <__GASP_DOC_main_loop>

00104c7c <__GASP_Monitor_Not_Command_5>:
  104c7c:	00 0e 1e f9 		CMP	r0,#0x6
  104c80:	00 32 ec d9 		JNE	0x1326		; 104c98 <__GASP_Monitor_Not_Command_6>

00104c84 <__GASP_Monitor_Command_6_hwpush>:
  104c84:	00 3a ed 74 		CALLS	0x128b		; 104a2c <__GASP_receive_word_i0>
  104c88:	00 0c af 08 		MOVE	ipl,i0l
  104c8c:	00 0c af 19 		MOVE	iph,i0h
  104c90:	00 2d ff ff 		PUSH
  104c94:	00 33 ed 10 		JUMP	0x12ef		; 104bbc <__GASP_DOC_main_loop>

00104c98 <__GASP_Monitor_Not_Command_6>:
  104c98:	00 0e 1e f8 		CMP	r0,#0x7
  104c9c:	00 32 ed 10 		JNE	0x12ef		; 104bbc <__GASP_DOC_main_loop>

00104ca0 <__GASP_DOC_main_loop_exit>:
  104ca0:	00 3a ed 7f 		CALLS	0x1280		; 104a00 <__GASP_receive_byte>
  104ca4:	00 0c af eb 		MOVE	r3,r0
  104ca8:	00 3a ed 74 		CALLS	0x128b		; 104a2c <__GASP_receive_word_i0>
  104cac:	00 0c af 0c 		MOVE	r2,i0l
  104cb0:	00 0c af 1d 		MOVE	r1,i0h
  104cb4:	00 3a ed 74 		CALLS	0x128b		; 104a2c <__GASP_receive_word_i0>
  104cb8:	00 3a ed 74 		CALLS	0x128b		; 104a2c <__GASP_receive_word_i0>
  104cbc:	00 0c af 04 		MOVE	i2l,i0l
  104cc0:	00 0c af 15 		MOVE	i2h,i0h
  104cc4:	00 3a ed 74 		CALLS	0x128b		; 104a2c <__GASP_receive_word_i0>
  104cc8:	00 0c af 02 		MOVE	i1l,i0l
  104ccc:	00 0c af 13 		MOVE	i1h,i0h
  104cd0:	00 3a ed 74 		CALLS	0x128b		; 104a2c <__GASP_receive_word_i0>
  104cd4:	00 3a ed 7f 		CALLS	0x1280		; 104a00 <__GASP_receive_byte>
  104cd8:	00 03 7e ff 		MOVE	-(i3,1),r0
  104cdc:	00 3a ed 7f 		CALLS	0x1280		; 104a00 <__GASP_receive_byte>
  104ce0:	00 03 7e ff 		MOVE	-(i3,1),r0
  104ce4:	00 3a ed 7f 		CALLS	0x1280		; 104a00 <__GASP_receive_byte>
  104ce8:	00 03 7e ff 		MOVE	-(i3,1),r0
  104cec:	00 3a ed 7f 		CALLS	0x1280		; 104a00 <__GASP_receive_byte>
  104cf0:	00 03 7e ff 		MOVE	-(i3,1),r0
  104cf4:	00 3a ed 7f 		CALLS	0x1280		; 104a00 <__GASP_receive_byte>
  104cf8:	00 03 7e ff 		MOVE	-(i3,1),r0
  104cfc:	00 3a ed 7f 		CALLS	0x1280		; 104a00 <__GASP_receive_byte>
  104d00:	00 03 7e ff 		MOVE	-(i3,1),r0
  104d04:	00 3a ed 7f 		CALLS	0x1280		; 104a00 <__GASP_receive_byte>
  104d08:	00 03 7e ff 		MOVE	-(i3,1),r0
  104d0c:	00 3a ed 7f 		CALLS	0x1280		; 104a00 <__GASP_receive_byte>
  104d10:	00 03 7e ff 		MOVE	-(i3,1),r0
  104d14:	00 3a ed 7f 		CALLS	0x1280		; 104a00 <__GASP_receive_byte>
  104d18:	00 03 7e ff 		MOVE	-(i3,1),r0
  104d1c:	00 3a ed 84 		CALLS	0x127b		; 1049ec <_GASP_INLINE_WAIT_FOR_EVENT>
  104d20:	00 04 ae d4 		MOVE	r0,0x2b	; 2b <RegGaspDIn>
  104d24:	00 01 be d3 		MOVE	0x2c,r0	; 2c <RegGaspDOut>
  104d28:	00 3a ed 84 		CALLS	0x127b		; 1049ec <_GASP_INLINE_WAIT_FOR_EVENT>
  104d2c:	00 16 af 01 		MOVE	a,(i3,1)+
  104d30:	00 01 bf ff 		MOVE	0x00,a	; 0 <RegSysCfg1>
  104d34:	00 16 af 01 		MOVE	a,(i3,1)+
  104d38:	00 01 bf fc 		MOVE	0x03,a	; 3 <RegClockCfg1>
  104d3c:	00 16 af 01 		MOVE	a,(i3,1)+
  104d40:	00 01 bf fb 		MOVE	0x04,a	; 4 <RegClockCfg2>
  104d44:	00 16 af 01 		MOVE	a,(i3,1)+
  104d48:	00 0e 2f 25 		AND	a,#0xda
  104d4c:	00 0c af fa 		MOVE	stat,a
  104d50:	00 16 af 01 		MOVE	a,(i3,1)+
  104d54:	00 01 bf 93 		MOVE	0x6c,a	; 6c <RegEvtCfg>
  104d58:	00 16 a9 01 		MOVE	iph,(i3,1)+
  104d5c:	00 16 a8 01 		MOVE	ipl,(i3,1)+
  104d60:	00 17 af 01 		SHL	a,(i3,1)+
  104d64:	00 16 af 01 		MOVE	a,(i3,1)+
  104d68:	00 3f 1f ff 		RETI

00104d6c <memcpy>:
  104d6c:	00 03 74 ff 		MOVE	-(i3,1),i2l
  104d70:	00 03 75 ff 		MOVE	-(i3,1),i2h
  104d74:	00 0c af d3 		MOVE	i1h,r1
  104d78:	00 0c af e2 		MOVE	i1l,r0
  104d7c:	00 1e af 02 		MOVE	a,(i3,2)
  104d80:	00 1e bf 03 		OR	a,(i3,3)
  104d84:	00 36 ec 8d 		JZS	0x1372		; 104dc8 <memcpy+0x5c>
  104d88:	00 0c af b1 		MOVE	i0h,r3
  104d8c:	00 0c af c0 		MOVE	i0l,r2
  104d90:	00 1a af 00 		MOVE	a,(i1,0)
  104d94:	00 02 cf 00 		MOVE	(i0,0),a
  104d98:	00 0d 1f 22 		INC	i1l,i1l
  104d9c:	00 0d 5f 33 		INCC	i1h,i1h
  104da0:	00 0d 1f 00 		INC	i0l,i0l
  104da4:	00 0d 5f 11 		INCC	i0h,i0h
  104da8:	00 1f bf 03 		DEC	a,(i3,3)
  104dac:	00 02 ff 03 		MOVE	(i3,3),a
  104db0:	00 1f ff 02 		DECC	a,(i3,2)
  104db4:	00 02 ff 02 		MOVE	(i3,2),a
  104db8:	00 1e bf 03 		OR	a,(i3,3)
  104dbc:	00 32 ec 8e 		JZC	0x1371		; 104dc4 <memcpy+0x58>
  104dc0:	00 33 ec 8d 		JUMP	0x1372		; 104dc8 <memcpy+0x5c>
  104dc4:	00 33 ec 9b 		JUMP	0x1364		; 104d90 <memcpy+0x24>
  104dc8:	00 16 a5 01 		MOVE	i2h,(i3,1)+
  104dcc:	00 16 a4 01 		MOVE	i2l,(i3,1)+
  104dd0:	00 23 ff ff 		JUMP	ip

00104dd4 <divmodsi4>:
  104dd4:	00 03 71 ff 		MOVE	-(i3,1),i0h
  104dd8:	00 03 70 ff 		MOVE	-(i3,1),i0l
  104ddc:	00 03 73 ff 		MOVE	-(i3,1),i1h
  104de0:	00 03 72 ff 		MOVE	-(i3,1),i1l
  104de4:	00 03 75 ff 		MOVE	-(i3,1),i2h
  104de8:	00 1f 90 08 		CPL2	i0l,(i3,8)
  104dec:	00 1f c3 07 		CPL2C	i1h,(i3,7)
  104df0:	00 1f c2 06 		CPL2C	i1l,(i3,6)
  104df4:	00 1e a1 05 		MOVE	i0h,(i3,5)
  104df8:	00 0d cf 15 		CPL2C	i2h,i0h
  104dfc:	00 34 ec 2a 		JCS	0x13d5		; 104f54 <divmodsi4+0x180>
  104e00:	00 0e f1 7f 		TSTPAT	i0h,#0x80
  104e04:	00 36 ec 79 		JZS	0x1386		; 104e18 <divmodsi4+0x44>
  104e08:	00 02 f0 08 		MOVE	(i3,8),i0l
  104e0c:	00 02 f3 07 		MOVE	(i3,7),i1h
  104e10:	00 02 f2 06 		MOVE	(i3,6),i1l
  104e14:	00 02 f5 05 		MOVE	(i3,5),i2h
  104e18:	00 0c 81 b1 		XOR	i0h,r3,i0h
  104e1c:	00 03 71 ff 		MOVE	-(i3,1),i0h
  104e20:	00 03 7b ff 		MOVE	-(i3,1),r3
  104e24:	00 0e fb 7f 		TSTPAT	r3,#0x80
  104e28:	00 36 ec 70 		JZS	0x138f		; 104e3c <divmodsi4+0x68>
  104e2c:	00 0d 9f ee 		CPL2	r0,r0
  104e30:	00 0d cf dd 		CPL2C	r1,r1
  104e34:	00 0d cf cc 		CPL2C	r2,r2
  104e38:	00 0d cf bb 		CPL2C	r3,r3
  104e3c:	00 0e a1 ff 		MOVE	i0h,#0x0
  104e40:	00 0e a0 ff 		MOVE	i0l,#0x0
  104e44:	00 0e a3 ff 		MOVE	i1h,#0x0
  104e48:	00 0e a2 ff 		MOVE	i1l,#0x0
  104e4c:	00 0e a5 e0 		MOVE	i2h,#0x1f
  104e50:	00 0d af ee 		SHL	r0,r0
  104e54:	00 0d ef dd 		SHLC	r1,r1
  104e58:	00 0d ef cc 		SHLC	r2,r2
  104e5c:	00 0d ef bb 		SHLC	r3,r3
  104e60:	00 0d ef 22 		SHLC	i1l,i1l
  104e64:	00 0d ef 33 		SHLC	i1h,i1h
  104e68:	00 0d ef 00 		SHLC	i0l,i0l
  104e6c:	00 0d ef 11 		SHLC	i0h,i0h
  104e70:	00 1e 32 0a 		SUBS	i1l,(i3,10)
  104e74:	00 1e 73 09 		SUBSC	i1h,(i3,9)
  104e78:	00 1e 70 08 		SUBSC	i0l,(i3,8)
  104e7c:	00 1e 71 07 		SUBSC	i0h,(i3,7)
  104e80:	00 34 ec 4f 		JCS	0x13b0		; 104ec0 <divmodsi4+0xec>
  104e84:	00 0d bf 55 		DEC	i2h,i2h
  104e88:	00 30 ec 4b 		JCC	0x13b4		; 104ed0 <divmodsi4+0xfc>
  104e8c:	00 0d af ee 		SHL	r0,r0
  104e90:	00 0d ef dd 		SHLC	r1,r1
  104e94:	00 0d ef cc 		SHLC	r2,r2
  104e98:	00 0d ef bb 		SHLC	r3,r3
  104e9c:	00 0d ef 22 		SHLC	i1l,i1l
  104ea0:	00 0d ef 33 		SHLC	i1h,i1h
  104ea4:	00 0d ef 00 		SHLC	i0l,i0l
  104ea8:	00 0d ef 11 		SHLC	i0h,i0h
  104eac:	00 1e c2 0a 		ADD	i1l,(i3,10)
  104eb0:	00 1e d3 09 		ADDC	i1h,(i3,9)
  104eb4:	00 1e d0 08 		ADDC	i0l,(i3,8)
  104eb8:	00 1e d1 07 		ADDC	i0h,(i3,7)
  104ebc:	00 30 ec 5e 		JCC	0x13a1		; 104e84 <divmodsi4+0xb0>
  104ec0:	00 0e be fe 		OR	r0,#0x1
  104ec4:	00 0d bf 55 		DEC	i2h,i2h
  104ec8:	00 34 ec 6b 		JCS	0x1394		; 104e50 <divmodsi4+0x7c>
  104ecc:	00 33 ec 47 		JUMP	0x13b8		; 104ee0 <divmodsi4+0x10c>
  104ed0:	00 1e c2 0a 		ADD	i1l,(i3,10)
  104ed4:	00 1e d3 09 		ADDC	i1h,(i3,9)
  104ed8:	00 1e d0 08 		ADDC	i0l,(i3,8)
  104edc:	00 1e d1 07 		ADDC	i0h,(i3,7)
  104ee0:	00 17 af 01 		SHL	a,(i3,1)+
  104ee4:	00 30 ec 41 		JCC	0x13be		; 104ef8 <divmodsi4+0x124>
  104ee8:	00 0d 9f 22 		CPL2	i1l,i1l
  104eec:	00 0d cf 33 		CPL2C	i1h,i1h
  104ef0:	00 0d cf 00 		CPL2C	i0l,i0l
  104ef4:	00 0d cf 11 		CPL2C	i0h,i0h
  104ef8:	00 02 f2 09 		MOVE	(i3,9),i1l
  104efc:	00 02 f3 08 		MOVE	(i3,8),i1h
  104f00:	00 02 f0 07 		MOVE	(i3,7),i0l
  104f04:	00 02 f1 06 		MOVE	(i3,6),i0h
  104f08:	00 17 af 01 		SHL	a,(i3,1)+
  104f0c:	00 30 ec 31 		JCC	0x13ce		; 104f38 <divmodsi4+0x164>
  104f10:	00 0d 9f ee 		CPL2	r0,r0
  104f14:	00 0d cf dd 		CPL2C	r1,r1
  104f18:	00 0d cf cc 		CPL2C	r2,r2
  104f1c:	00 0d cf bb 		CPL2C	r3,r3
  104f20:	00 16 a5 01 		MOVE	i2h,(i3,1)+
  104f24:	00 16 a2 01 		MOVE	i1l,(i3,1)+
  104f28:	00 16 a3 01 		MOVE	i1h,(i3,1)+
  104f2c:	00 16 a0 01 		MOVE	i0l,(i3,1)+
  104f30:	00 16 a1 01 		MOVE	i0h,(i3,1)+
  104f34:	00 3f 3f ff 		RET
  104f38:	00 0e fb 7f 		TSTPAT	r3,#0x80
  104f3c:	00 36 ec 37 		JZS	0x13c8		; 104f20 <divmodsi4+0x14c>
  104f40:	00 0e ab 80 		MOVE	r3,#0x7f
  104f44:	00 0e ac 00 		MOVE	r2,#0xff
  104f48:	00 0e ad 00 		MOVE	r1,#0xff
  104f4c:	00 0e ae 00 		MOVE	r0,#0xff
  104f50:	00 33 ec 37 		JUMP	0x13c8		; 104f20 <divmodsi4+0x14c>
  104f54:	00 0d af bf 		SHL	a,r3
  104f58:	00 30 ec 2f 		JCC	0x13d0		; 104f40 <divmodsi4+0x16c>
  104f5c:	00 0e ab 7f 		MOVE	r3,#0x80
  104f60:	00 0e ac ff 		MOVE	r2,#0x0
  104f64:	00 0e ad ff 		MOVE	r1,#0x0
  104f68:	00 0e ae ff 		MOVE	r0,#0x0
  104f6c:	00 33 ec 37 		JUMP	0x13c8		; 104f20 <divmodsi4+0x14c>

00104f70 <mulhi3>:
  104f70:	00 0c ee bf 		MUL	a,r3,r0
  104f74:	00 0c af fb 		MOVE	r3,a
  104f78:	00 0c ed cf 		MUL	a,r2,r1
  104f7c:	00 0c cf bd 		ADD	r1,r3,a
  104f80:	00 0c ec ec 		MUL	r2,r0,r2
  104f84:	00 0c af fe 		MOVE	r0,a
  104f88:	00 0c cd cd 		ADD	r1,r2,r1
  104f8c:	00 3f 3f ff 		RET

00104f90 <mulhisi3>:
  104f90:	00 03 7b ff 		MOVE	-(i3,1),r3
  104f94:	00 03 7d ff 		MOVE	-(i3,1),r1
  104f98:	00 03 7e ff 		MOVE	-(i3,1),r0
  104f9c:	00 0c ee cd 		MUL	r1,r2,r0
  104fa0:	00 03 7f ff 		MOVE	-(i3,1),a
  104fa4:	00 0c eb ee 		MUL	r0,r0,r3
  104fa8:	00 0c cd fd 		ADD	r1,a,r1
  104fac:	00 1e eb 02 		MUL	r3,(i3,2)
  104fb0:	00 0c de fe 		ADDC	r0,a,r0
  104fb4:	00 0d 5f bb 		INCC	r3,r3
  104fb8:	00 1f af 02 		SHL	a,(i3,2)
  104fbc:	00 30 ec 0d 		JCC	0x13f2		; 104fc8 <mulhisi3+0x38>
  104fc0:	00 0c 3e ce 		SUBS	r0,r2,r0
  104fc4:	00 1e 7b 03 		SUBSC	r3,(i3,3)
  104fc8:	00 1f af 03 		SHL	a,(i3,3)
  104fcc:	00 30 ec 09 		JCC	0x13f6		; 104fd8 <mulhisi3+0x48>
  104fd0:	00 1e 3e 01 		SUBS	r0,(i3,1)
  104fd4:	00 1e 7b 02 		SUBSC	r3,(i3,2)
  104fd8:	00 1e ec 02 		MUL	r2,(i3,2)
  104fdc:	00 0c cd fd 		ADD	r1,a,r1
  104fe0:	00 0c dc ec 		ADDC	r2,r0,r2
  104fe4:	00 0d 5f bb 		INCC	r3,r3
  104fe8:	00 16 ae 04 		MOVE	r0,(i3,4)+
  104fec:	00 3f 3f ff 		RET

00104ff0 <mulsi3>:
  104ff0:	00 03 71 ff 		MOVE	-(i3,1),i0h
  104ff4:	00 03 70 ff 		MOVE	-(i3,1),i0l
  104ff8:	00 03 73 ff 		MOVE	-(i3,1),i1h
  104ffc:	00 03 72 ff 		MOVE	-(i3,1),i1l
  105000:	00 1e a0 07 		MOVE	i0l,(i3,7)
  105004:	00 1e a1 0b 		MOVE	i0h,(i3,11)
  105008:	00 0c e0 1d 		MUL	r1,i0h,i0l
  10500c:	00 0c af fe 		MOVE	r0,a
  105010:	00 1e a3 0a 		MOVE	i1h,(i3,10)
  105014:	00 0c e0 3c 		MUL	r2,i1h,i0l
  105018:	00 0c cd fd 		ADD	r1,a,r1
  10501c:	00 1e a2 09 		MOVE	i1l,(i3,9)
  105020:	00 0c e0 2b 		MUL	r3,i1l,i0l
  105024:	00 0c dc fc 		ADDC	r2,a,r2
  105028:	00 1e e0 08 		MUL	i0l,(i3,8)
  10502c:	00 0c db fb 		ADDC	r3,a,r3
  105030:	00 1e a0 06 		MOVE	i0l,(i3,6)
  105034:	00 0c e3 03 		MUL	i1h,i0l,i1h
  105038:	00 0c cc fc 		ADD	r2,a,r2
  10503c:	00 0c db 3b 		ADDC	r3,i1h,r3
  105040:	00 0c e0 13 		MUL	i1h,i0h,i0l
  105044:	00 0c cd fd 		ADD	r1,a,r1
  105048:	00 0c dc 3c 		ADDC	r2,i1h,r2
  10504c:	00 1e e0 09 		MUL	i0l,(i3,9)
  105050:	00 0c db fb 		ADDC	r3,a,r3
  105054:	00 1e a0 05 		MOVE	i0l,(i3,5)
  105058:	00 0c e0 13 		MUL	i1h,i0h,i0l
  10505c:	00 0c cc fc 		ADD	r2,a,r2
  105060:	00 0c db 3b 		ADDC	r3,i1h,r3
  105064:	00 1e e0 0a 		MUL	i0l,(i3,10)
  105068:	00 0c cb fb 		ADD	r3,a,r3
  10506c:	00 1e e1 04 		MUL	i0h,(i3,4)
  105070:	00 0c cb fb 		ADD	r3,a,r3
  105074:	00 16 a2 01 		MOVE	i1l,(i3,1)+
  105078:	00 16 a3 01 		MOVE	i1h,(i3,1)+
  10507c:	00 16 a0 01 		MOVE	i0l,(i3,1)+
  105080:	00 16 a1 01 		MOVE	i0h,(i3,1)+
  105084:	00 3f 3f ff 		RET

00105088 <udivmodhi4>:
  105088:	00 03 71 ff 		MOVE	-(i3,1),i0h
  10508c:	00 1e ac 01 		MOVE	r2,(i3,1)
  105090:	00 1e bc 02 		OR	r2,(i3,2)
  105094:	00 36 eb c5 		JZS	0x143a		; 1050e8 <udivmodhi4+0x60>
  105098:	00 0e ac ff 		MOVE	r2,#0x0
  10509c:	00 0e ab ff 		MOVE	r3,#0x0
  1050a0:	00 0e a1 f0 		MOVE	i0h,#0xf
  1050a4:	00 0d af ee 		SHL	r0,r0
  1050a8:	00 0d ef dd 		SHLC	r1,r1
  1050ac:	00 0d ef cc 		SHLC	r2,r2
  1050b0:	00 0d ef bb 		SHLC	r3,r3
  1050b4:	00 1e 3c 02 		SUBS	r2,(i3,2)
  1050b8:	00 1e 7b 01 		SUBSC	r3,(i3,1)
  1050bc:	00 34 eb ca 		JCS	0x1435		; 1050d4 <udivmodhi4+0x4c>
  1050c0:	00 1e cc 02 		ADD	r2,(i3,2)
  1050c4:	00 1e db 01 		ADDC	r3,(i3,1)
  1050c8:	00 0d bf 11 		DEC	i0h,i0h
  1050cc:	00 34 eb d6 		JCS	0x1429		; 1050a4 <udivmodhi4+0x1c>
  1050d0:	00 33 eb c7 		JUMP	0x1438		; 1050e0 <udivmodhi4+0x58>
  1050d4:	00 0e be fe 		OR	r0,#0x1
  1050d8:	00 0d bf 11 		DEC	i0h,i0h
  1050dc:	00 34 eb d6 		JCS	0x1429		; 1050a4 <udivmodhi4+0x1c>
  1050e0:	00 16 a1 01 		MOVE	i0h,(i3,1)+
  1050e4:	00 3f 3f ff 		RET
  1050e8:	00 0e ab ff 		MOVE	r3,#0x0
  1050ec:	00 0e ad 00 		MOVE	r1,#0xff
  1050f0:	00 0e ae 00 		MOVE	r0,#0xff
  1050f4:	00 33 eb c7 		JUMP	0x1438		; 1050e0 <udivmodhi4+0x58>

001050f8 <udivmodsi4>:
  1050f8:	00 03 70 ff 		MOVE	-(i3,1),i0l
  1050fc:	00 1e a0 01 		MOVE	i0l,(i3,1)
  105100:	00 1e b0 02 		OR	i0l,(i3,2)
  105104:	00 1e b0 03 		OR	i0l,(i3,3)
  105108:	00 1e b0 04 		OR	i0l,(i3,4)
  10510c:	00 36 eb 91 		JZS	0x146e		; 1051b8 <udivmodsi4+0xc0>
  105110:	00 03 71 ff 		MOVE	-(i3,1),i0h
  105114:	00 03 73 ff 		MOVE	-(i3,1),i1h
  105118:	00 03 72 ff 		MOVE	-(i3,1),i1l
  10511c:	00 03 75 ff 		MOVE	-(i3,1),i2h
  105120:	00 0e a1 ff 		MOVE	i0h,#0x0
  105124:	00 0e a0 ff 		MOVE	i0l,#0x0
  105128:	00 0e a3 ff 		MOVE	i1h,#0x0
  10512c:	00 0e a2 ff 		MOVE	i1l,#0x0
  105130:	00 0e a5 e0 		MOVE	i2h,#0x1f
  105134:	00 0d af ee 		SHL	r0,r0
  105138:	00 0d ef dd 		SHLC	r1,r1
  10513c:	00 0d ef cc 		SHLC	r2,r2
  105140:	00 0d ef bb 		SHLC	r3,r3
  105144:	00 0d ef 22 		SHLC	i1l,i1l
  105148:	00 0d ef 33 		SHLC	i1h,i1h
  10514c:	00 0d ef 00 		SHLC	i0l,i0l
  105150:	00 0d ef 11 		SHLC	i0h,i0h
  105154:	00 1e 32 08 		SUBS	i1l,(i3,8)
  105158:	00 1e 73 07 		SUBSC	i1h,(i3,7)
  10515c:	00 1e 70 06 		SUBSC	i0l,(i3,6)
  105160:	00 1e 71 05 		SUBSC	i0h,(i3,5)
  105164:	00 34 eb 9e 		JCS	0x1461		; 105184 <udivmodsi4+0x8c>
  105168:	00 1e c2 08 		ADD	i1l,(i3,8)
  10516c:	00 1e d3 07 		ADDC	i1h,(i3,7)
  105170:	00 1e d0 06 		ADDC	i0l,(i3,6)
  105174:	00 1e d1 05 		ADDC	i0h,(i3,5)
  105178:	00 0d bf 55 		DEC	i2h,i2h
  10517c:	00 34 eb b2 		JCS	0x144d		; 105134 <udivmodsi4+0x3c>
  105180:	00 33 eb 9b 		JUMP	0x1464		; 105190 <udivmodsi4+0x98>
  105184:	00 0e be fe 		OR	r0,#0x1
  105188:	00 0d bf 55 		DEC	i2h,i2h
  10518c:	00 34 eb b2 		JCS	0x144d		; 105134 <udivmodsi4+0x3c>
  105190:	00 02 f2 08 		MOVE	(i3,8),i1l
  105194:	00 02 f3 07 		MOVE	(i3,7),i1h
  105198:	00 02 f0 06 		MOVE	(i3,6),i0l
  10519c:	00 02 f1 05 		MOVE	(i3,5),i0h
  1051a0:	00 16 a5 01 		MOVE	i2h,(i3,1)+
  1051a4:	00 16 a2 01 		MOVE	i1l,(i3,1)+
  1051a8:	00 16 a3 01 		MOVE	i1h,(i3,1)+
  1051ac:	00 16 a1 01 		MOVE	i0h,(i3,1)+
  1051b0:	00 16 a0 01 		MOVE	i0l,(i3,1)+
  1051b4:	00 3f 3f ff 		RET
  1051b8:	00 0e ab 00 		MOVE	r3,#0xff
  1051bc:	00 0e ac 00 		MOVE	r2,#0xff
  1051c0:	00 0e ad 00 		MOVE	r1,#0xff
  1051c4:	00 0e ae 00 		MOVE	r0,#0xff
  1051c8:	00 33 eb 93 		JUMP	0x146c		; 1051b0 <udivmodsi4+0xb8>

001051cc <umodqi3>:
  1051cc:	00 0c af dc 		MOVE	r2,r1
  1051d0:	00 36 eb 81 		JZS	0x147e		; 1051f8 <umodqi3+0x2c>
  1051d4:	00 0e ac ff 		MOVE	r2,#0x0
  1051d8:	00 0e ab f8 		MOVE	r3,#0x7
  1051dc:	00 0d af ee 		SHL	r0,r0
  1051e0:	00 0d ef cc 		SHLC	r2,r2
  1051e4:	00 0c 3c df 		SUBS	a,r1,r2
  1051e8:	00 0d 3f fc 		CMVS	r2,a
  1051ec:	00 0d bf bb 		DEC	r3,r3
  1051f0:	00 34 eb 88 		JCS	0x1477		; 1051dc <umodqi3+0x10>
  1051f4:	00 3f 3f ff 		RET
  1051f8:	00 3f 3f ff 		RET

001051fc <_DataInit_MemClear>:
  1051fc:	00 0e ad ff 		MOVE	r1,#0x0

00105200 <_DataInit_MemSet>:
  105200:	00 03 4d 01 		MOVE	(i0,1)+,r1
  105204:	00 0d bf ee 		DEC	r0,r0
  105208:	00 32 eb 7f 		JZC	0x1480		; 105200 <_DataInit_MemSet>
  10520c:	00 23 ff ff 		JUMP	ip

00105210 <DataInit>:
  105210:	00 03 78 ff 		MOVE	-(i3,1),ipl
  105214:	00 03 79 ff 		MOVE	-(i3,1),iph
  105218:	00 0e a1 fe 		MOVE	i0h,#0x1
  10521c:	00 0e a0 c5 		MOVE	i0l,#0x3a
  105220:	00 0e af fc 		MOVE	a,#0x3
  105224:	00 03 4f 01 		MOVE	(i0,1)+,a
  105228:	00 0e af 3d 		MOVE	a,#0xc2
  10522c:	00 03 4f 01 		MOVE	(i0,1)+,a
  105230:	00 0e af fc 		MOVE	a,#0x3
  105234:	00 03 4f 01 		MOVE	(i0,1)+,a
  105238:	00 0e af 3f 		MOVE	a,#0xc0
  10523c:	00 03 4f 01 		MOVE	(i0,1)+,a
  105240:	00 0e af fc 		MOVE	a,#0x3
  105244:	00 03 4f 01 		MOVE	(i0,1)+,a
  105248:	00 0e af 41 		MOVE	a,#0xbe
  10524c:	00 03 4f 01 		MOVE	(i0,1)+,a
  105250:	00 0e af fc 		MOVE	a,#0x3
  105254:	00 03 4f 01 		MOVE	(i0,1)+,a
  105258:	00 0e af 43 		MOVE	a,#0xbc
  10525c:	00 03 4f 01 		MOVE	(i0,1)+,a
  105260:	00 0e af fc 		MOVE	a,#0x3
  105264:	00 03 4f 01 		MOVE	(i0,1)+,a
  105268:	00 0e af 45 		MOVE	a,#0xba
  10526c:	00 03 4f 01 		MOVE	(i0,1)+,a
  105270:	00 0e af fc 		MOVE	a,#0x3
  105274:	00 03 4f 01 		MOVE	(i0,1)+,a
  105278:	00 0e af 47 		MOVE	a,#0xb8
  10527c:	00 03 4f 01 		MOVE	(i0,1)+,a
  105280:	00 0e af fc 		MOVE	a,#0x3
  105284:	00 03 4f 01 		MOVE	(i0,1)+,a
  105288:	00 0e af 49 		MOVE	a,#0xb6
  10528c:	00 03 4f 01 		MOVE	(i0,1)+,a
  105290:	00 0e af fc 		MOVE	a,#0x3
  105294:	00 03 4f 01 		MOVE	(i0,1)+,a
  105298:	00 0e af 4b 		MOVE	a,#0xb4
  10529c:	00 03 4f 01 		MOVE	(i0,1)+,a
  1052a0:	00 0e af fc 		MOVE	a,#0x3
  1052a4:	00 03 4f 01 		MOVE	(i0,1)+,a
  1052a8:	00 0e af 4d 		MOVE	a,#0xb2
  1052ac:	00 03 4f 01 		MOVE	(i0,1)+,a
  1052b0:	00 0e af fc 		MOVE	a,#0x3
  1052b4:	00 03 4f 01 		MOVE	(i0,1)+,a
  1052b8:	00 0e af 4f 		MOVE	a,#0xb0
  1052bc:	00 03 4f 01 		MOVE	(i0,1)+,a
  1052c0:	00 0e af fc 		MOVE	a,#0x3
  1052c4:	00 03 4f 01 		MOVE	(i0,1)+,a
  1052c8:	00 0e af 51 		MOVE	a,#0xae
  1052cc:	00 03 4f 01 		MOVE	(i0,1)+,a
  1052d0:	00 0e af fc 		MOVE	a,#0x3
  1052d4:	00 03 4f 01 		MOVE	(i0,1)+,a
  1052d8:	00 0e af 53 		MOVE	a,#0xac
  1052dc:	00 03 4f 01 		MOVE	(i0,1)+,a
  1052e0:	00 0e af fc 		MOVE	a,#0x3
  1052e4:	00 03 4f 01 		MOVE	(i0,1)+,a
  1052e8:	00 0e af 55 		MOVE	a,#0xaa
  1052ec:	00 03 4f 01 		MOVE	(i0,1)+,a
  1052f0:	00 0e af fc 		MOVE	a,#0x3
  1052f4:	00 03 4f 01 		MOVE	(i0,1)+,a
  1052f8:	00 0e af 57 		MOVE	a,#0xa8
  1052fc:	00 03 4f 01 		MOVE	(i0,1)+,a
  105300:	00 0e af fc 		MOVE	a,#0x3
  105304:	00 03 4f 01 		MOVE	(i0,1)+,a
  105308:	00 0e af 59 		MOVE	a,#0xa6
  10530c:	00 03 4f 01 		MOVE	(i0,1)+,a
  105310:	00 0e af fc 		MOVE	a,#0x3
  105314:	00 03 4f 01 		MOVE	(i0,1)+,a
  105318:	00 0e af 5b 		MOVE	a,#0xa4
  10531c:	00 03 4f 01 		MOVE	(i0,1)+,a
  105320:	00 0e af fc 		MOVE	a,#0x3
  105324:	00 03 4f 01 		MOVE	(i0,1)+,a
  105328:	00 0e af 5d 		MOVE	a,#0xa2
  10532c:	00 03 4f 01 		MOVE	(i0,1)+,a
  105330:	00 0e af fc 		MOVE	a,#0x3
  105334:	00 03 4f 01 		MOVE	(i0,1)+,a
  105338:	00 0e af 5f 		MOVE	a,#0xa0
  10533c:	00 03 4f 01 		MOVE	(i0,1)+,a
  105340:	00 0e af fc 		MOVE	a,#0x3
  105344:	00 03 4f 01 		MOVE	(i0,1)+,a
  105348:	00 0e af 61 		MOVE	a,#0x9e
  10534c:	00 03 4f 01 		MOVE	(i0,1)+,a
  105350:	00 0e af fc 		MOVE	a,#0x3
  105354:	00 03 4f 01 		MOVE	(i0,1)+,a
  105358:	00 0e af 63 		MOVE	a,#0x9c
  10535c:	00 03 4f 01 		MOVE	(i0,1)+,a
  105360:	00 0e af fc 		MOVE	a,#0x3
  105364:	00 03 4f 01 		MOVE	(i0,1)+,a
  105368:	00 0e af 65 		MOVE	a,#0x9a
  10536c:	00 03 4f 01 		MOVE	(i0,1)+,a
  105370:	00 0e af fc 		MOVE	a,#0x3
  105374:	00 03 4f 01 		MOVE	(i0,1)+,a
  105378:	00 0e af 67 		MOVE	a,#0x98
  10537c:	00 03 4f 01 		MOVE	(i0,1)+,a
  105380:	00 0e af fc 		MOVE	a,#0x3
  105384:	00 03 4f 01 		MOVE	(i0,1)+,a
  105388:	00 0e af 69 		MOVE	a,#0x96
  10538c:	00 03 4f 01 		MOVE	(i0,1)+,a
  105390:	00 0e af fc 		MOVE	a,#0x3
  105394:	00 03 4f 01 		MOVE	(i0,1)+,a
  105398:	00 0e af 6b 		MOVE	a,#0x94
  10539c:	00 03 4f 01 		MOVE	(i0,1)+,a
  1053a0:	00 0e af fc 		MOVE	a,#0x3
  1053a4:	00 03 4f 01 		MOVE	(i0,1)+,a
  1053a8:	00 0e af 6d 		MOVE	a,#0x92
  1053ac:	00 03 4f 01 		MOVE	(i0,1)+,a
  1053b0:	00 0e af fc 		MOVE	a,#0x3
  1053b4:	00 03 4f 01 		MOVE	(i0,1)+,a
  1053b8:	00 0e af 6f 		MOVE	a,#0x90
  1053bc:	00 03 4f 01 		MOVE	(i0,1)+,a
  1053c0:	00 0e af fc 		MOVE	a,#0x3
  1053c4:	00 03 4f 01 		MOVE	(i0,1)+,a
  1053c8:	00 0e af 71 		MOVE	a,#0x8e
  1053cc:	00 03 4f 01 		MOVE	(i0,1)+,a
  1053d0:	00 0e af fc 		MOVE	a,#0x3
  1053d4:	00 03 4f 01 		MOVE	(i0,1)+,a
  1053d8:	00 0e af 73 		MOVE	a,#0x8c
  1053dc:	00 03 4f 01 		MOVE	(i0,1)+,a
  1053e0:	00 0e af fc 		MOVE	a,#0x3
  1053e4:	00 03 4f 01 		MOVE	(i0,1)+,a
  1053e8:	00 0e af 75 		MOVE	a,#0x8a
  1053ec:	00 03 4f 01 		MOVE	(i0,1)+,a
  1053f0:	00 0e af fc 		MOVE	a,#0x3
  1053f4:	00 03 4f 01 		MOVE	(i0,1)+,a
  1053f8:	00 0e af 77 		MOVE	a,#0x88
  1053fc:	00 03 4f 01 		MOVE	(i0,1)+,a
  105400:	00 0e af fc 		MOVE	a,#0x3
  105404:	00 03 4f 01 		MOVE	(i0,1)+,a
  105408:	00 0e af 79 		MOVE	a,#0x86
  10540c:	00 03 4f 01 		MOVE	(i0,1)+,a
  105410:	00 0e af fc 		MOVE	a,#0x3
  105414:	00 03 4f 01 		MOVE	(i0,1)+,a
  105418:	00 0e af 7b 		MOVE	a,#0x84
  10541c:	00 03 4f 01 		MOVE	(i0,1)+,a
  105420:	00 0e af fc 		MOVE	a,#0x3
  105424:	00 03 4f 01 		MOVE	(i0,1)+,a
  105428:	00 0e af 7d 		MOVE	a,#0x82
  10542c:	00 03 4f 01 		MOVE	(i0,1)+,a
  105430:	00 0e af fc 		MOVE	a,#0x3
  105434:	00 03 4f 01 		MOVE	(i0,1)+,a
  105438:	00 0e af 7f 		MOVE	a,#0x80
  10543c:	00 03 4f 01 		MOVE	(i0,1)+,a
  105440:	00 0e af fc 		MOVE	a,#0x3
  105444:	00 03 4f 01 		MOVE	(i0,1)+,a
  105448:	00 0e af 81 		MOVE	a,#0x7e
  10544c:	00 03 4f 01 		MOVE	(i0,1)+,a
  105450:	00 0e ae fd 		MOVE	r0,#0x2
  105454:	00 0e ad d5 		MOVE	r1,#0x2a
  105458:	00 3a eb 7f 		CALLS	0x1480		; 105200 <_DataInit_MemSet>
  10545c:	00 0e af d6 		MOVE	a,#0x29
  105460:	00 03 4f 01 		MOVE	(i0,1)+,a
  105464:	00 0e af d7 		MOVE	a,#0x28
  105468:	00 03 4f 01 		MOVE	(i0,1)+,a
  10546c:	00 0e af dc 		MOVE	a,#0x23
  105470:	00 03 4f 01 		MOVE	(i0,1)+,a
  105474:	00 0e af de 		MOVE	a,#0x21
  105478:	00 03 4f 01 		MOVE	(i0,1)+,a
  10547c:	00 0e af df 		MOVE	a,#0x20
  105480:	00 03 4f 01 		MOVE	(i0,1)+,a
  105484:	00 0e af e3 		MOVE	a,#0x1c
  105488:	00 03 4f 01 		MOVE	(i0,1)+,a
  10548c:	00 0e af 4f 		MOVE	a,#0xb0
  105490:	00 03 4f 01 		MOVE	(i0,1)+,a
  105494:	00 0e af 4c 		MOVE	a,#0xb3
  105498:	00 03 4f 01 		MOVE	(i0,1)+,a
  10549c:	00 0e af 49 		MOVE	a,#0xb6
  1054a0:	00 03 4f 01 		MOVE	(i0,1)+,a
  1054a4:	00 0e af 46 		MOVE	a,#0xb9
  1054a8:	00 03 4f 01 		MOVE	(i0,1)+,a
  1054ac:	00 0e af 43 		MOVE	a,#0xbc
  1054b0:	00 03 4f 01 		MOVE	(i0,1)+,a
  1054b4:	00 0e af 40 		MOVE	a,#0xbf
  1054b8:	00 03 4f 01 		MOVE	(i0,1)+,a
  1054bc:	00 0e af 3d 		MOVE	a,#0xc2
  1054c0:	00 03 4f 01 		MOVE	(i0,1)+,a
  1054c4:	00 0e af 3a 		MOVE	a,#0xc5
  1054c8:	00 03 4f 01 		MOVE	(i0,1)+,a
  1054cc:	00 0e af 4f 		MOVE	a,#0xb0
  1054d0:	00 03 4f 01 		MOVE	(i0,1)+,a
  1054d4:	00 0e af 4c 		MOVE	a,#0xb3
  1054d8:	00 03 4f 01 		MOVE	(i0,1)+,a
  1054dc:	00 0e af 49 		MOVE	a,#0xb6
  1054e0:	00 03 4f 01 		MOVE	(i0,1)+,a
  1054e4:	00 0e af 46 		MOVE	a,#0xb9
  1054e8:	00 03 4f 01 		MOVE	(i0,1)+,a
  1054ec:	00 0e af 40 		MOVE	a,#0xbf
  1054f0:	00 03 4f 01 		MOVE	(i0,1)+,a
  1054f4:	00 0e af 3e 		MOVE	a,#0xc1
  1054f8:	00 03 4f 01 		MOVE	(i0,1)+,a
  1054fc:	00 0e af 3c 		MOVE	a,#0xc3
  105500:	00 03 4f 01 		MOVE	(i0,1)+,a
  105504:	00 0e af 3a 		MOVE	a,#0xc5
  105508:	00 03 4f 01 		MOVE	(i0,1)+,a
  10550c:	00 0e ae fc 		MOVE	r0,#0x3
  105510:	00 3a eb 80 		CALLS	0x147f		; 1051fc <_DataInit_MemClear>
  105514:	00 0e af c0 		MOVE	a,#0x3f
  105518:	00 03 4f 01 		MOVE	(i0,1)+,a
  10551c:	00 0e ae fd 		MOVE	r0,#0x2
  105520:	00 0e ad 00 		MOVE	r1,#0xff
  105524:	00 3a eb 7f 		CALLS	0x1480		; 105200 <_DataInit_MemSet>
  105528:	00 0e ae fd 		MOVE	r0,#0x2
  10552c:	00 3a eb 80 		CALLS	0x147f		; 1051fc <_DataInit_MemClear>
  105530:	00 0e af af 		MOVE	a,#0x50
  105534:	00 03 4f 01 		MOVE	(i0,1)+,a
  105538:	00 0e af fe 		MOVE	a,#0x1
  10553c:	00 03 4f 01 		MOVE	(i0,1)+,a
  105540:	00 0e af 5f 		MOVE	a,#0xa0
  105544:	00 03 4f 01 		MOVE	(i0,1)+,a
  105548:	00 0e af cd 		MOVE	a,#0x32
  10554c:	00 03 4f 01 		MOVE	(i0,1)+,a
  105550:	00 0e af 0f 		MOVE	a,#0xf0
  105554:	00 03 4f 01 		MOVE	(i0,1)+,a
  105558:	00 0e af e5 		MOVE	a,#0x1a
  10555c:	00 03 4f 01 		MOVE	(i0,1)+,a
  105560:	00 0e ae fd 		MOVE	r0,#0x2
  105564:	00 0e ad 00 		MOVE	r1,#0xff
  105568:	00 3a eb 7f 		CALLS	0x1480		; 105200 <_DataInit_MemSet>
  10556c:	00 0e ae fc 		MOVE	r0,#0x3
  105570:	00 3a eb 80 		CALLS	0x147f		; 1051fc <_DataInit_MemClear>
  105574:	00 0e af fe 		MOVE	a,#0x1
  105578:	00 03 4f 01 		MOVE	(i0,1)+,a
  10557c:	00 0e af ff 		MOVE	a,#0x0
  105580:	00 03 4f 01 		MOVE	(i0,1)+,a
  105584:	00 0e af fe 		MOVE	a,#0x1
  105588:	00 03 4f 01 		MOVE	(i0,1)+,a
  10558c:	00 0e ae fd 		MOVE	r0,#0x2
  105590:	00 0e ad 00 		MOVE	r1,#0xff
  105594:	00 3a eb 7f 		CALLS	0x1480		; 105200 <_DataInit_MemSet>
  105598:	00 0e af 47 		MOVE	a,#0xb8
  10559c:	00 03 4f 01 		MOVE	(i0,1)+,a
  1055a0:	00 0e af cf 		MOVE	a,#0x30
  1055a4:	00 03 4f 01 		MOVE	(i0,1)+,a
  1055a8:	00 0e af cd 		MOVE	a,#0x32
  1055ac:	00 03 4f 01 		MOVE	(i0,1)+,a
  1055b0:	00 0e ae fd 		MOVE	r0,#0x2
  1055b4:	00 3a eb 80 		CALLS	0x147f		; 1051fc <_DataInit_MemClear>
  1055b8:	00 0e af f5 		MOVE	a,#0xa
  1055bc:	00 03 4f 01 		MOVE	(i0,1)+,a
  1055c0:	00 0e af df 		MOVE	a,#0x20
  1055c4:	00 03 4f 01 		MOVE	(i0,1)+,a
  1055c8:	00 0e af fe 		MOVE	a,#0x1
  1055cc:	00 03 4f 01 		MOVE	(i0,1)+,a
  1055d0:	00 0e af ff 		MOVE	a,#0x0
  1055d4:	00 03 4f 01 		MOVE	(i0,1)+,a
  1055d8:	00 0e af fc 		MOVE	a,#0x3
  1055dc:	00 03 4f 01 		MOVE	(i0,1)+,a
  1055e0:	00 0e af 03 		MOVE	a,#0xfc
  1055e4:	00 03 4f 01 		MOVE	(i0,1)+,a
  1055e8:	00 0e af fe 		MOVE	a,#0x1
  1055ec:	00 03 4f 01 		MOVE	(i0,1)+,a
  1055f0:	00 0e af ff 		MOVE	a,#0x0
  1055f4:	00 03 4f 01 		MOVE	(i0,1)+,a
  1055f8:	00 0e af fa 		MOVE	a,#0x5
  1055fc:	00 03 4f 01 		MOVE	(i0,1)+,a
  105600:	00 0e af 03 		MOVE	a,#0xfc
  105604:	00 03 4f 01 		MOVE	(i0,1)+,a
  105608:	00 0e af fe 		MOVE	a,#0x1
  10560c:	00 03 4f 01 		MOVE	(i0,1)+,a
  105610:	00 0e af f9 		MOVE	a,#0x6
  105614:	00 03 4f 01 		MOVE	(i0,1)+,a
  105618:	00 0e af f5 		MOVE	a,#0xa
  10561c:	00 03 4f 01 		MOVE	(i0,1)+,a
  105620:	00 0e af 03 		MOVE	a,#0xfc
  105624:	00 03 4f 01 		MOVE	(i0,1)+,a
  105628:	00 0e af fe 		MOVE	a,#0x1
  10562c:	00 03 4f 01 		MOVE	(i0,1)+,a
  105630:	00 0e af ff 		MOVE	a,#0x0
  105634:	00 03 4f 01 		MOVE	(i0,1)+,a
  105638:	00 0e af f3 		MOVE	a,#0xc
  10563c:	00 03 4f 01 		MOVE	(i0,1)+,a
  105640:	00 0e af 03 		MOVE	a,#0xfc
  105644:	00 03 4f 01 		MOVE	(i0,1)+,a
  105648:	00 0e ae fd 		MOVE	r0,#0x2
  10564c:	00 0e ad fe 		MOVE	r1,#0x1
  105650:	00 3a eb 7f 		CALLS	0x1480		; 105200 <_DataInit_MemSet>
  105654:	00 0e af f1 		MOVE	a,#0xe
  105658:	00 03 4f 01 		MOVE	(i0,1)+,a
  10565c:	00 0e af 03 		MOVE	a,#0xfc
  105660:	00 03 4f 01 		MOVE	(i0,1)+,a
  105664:	00 0e ae f9 		MOVE	r0,#0x6
  105668:	00 3a eb 80 		CALLS	0x147f		; 1051fc <_DataInit_MemClear>
  10566c:	00 0e ae fd 		MOVE	r0,#0x2
  105670:	00 0e ad fe 		MOVE	r1,#0x1
  105674:	00 3a eb 7f 		CALLS	0x1480		; 105200 <_DataInit_MemSet>
  105678:	00 0e af ef 		MOVE	a,#0x10
  10567c:	00 03 4f 01 		MOVE	(i0,1)+,a
  105680:	00 0e ae f5 		MOVE	r0,#0xa
  105684:	00 3a eb 80 		CALLS	0x147f		; 1051fc <_DataInit_MemClear>
  105688:	00 0e af bf 		MOVE	a,#0x40
  10568c:	00 03 4f 01 		MOVE	(i0,1)+,a
  105690:	00 0e ae e3 		MOVE	r0,#0x1c
  105694:	00 3a eb 80 		CALLS	0x147f		; 1051fc <_DataInit_MemClear>
  105698:	00 0e af f7 		MOVE	a,#0x8
  10569c:	00 03 4f 01 		MOVE	(i0,1)+,a
  1056a0:	00 0e ae fd 		MOVE	r0,#0x2
  1056a4:	00 0e ad df 		MOVE	r1,#0x20
  1056a8:	00 3a eb 7f 		CALLS	0x1480		; 105200 <_DataInit_MemSet>
  1056ac:	00 0e af e0 		MOVE	a,#0x1f
  1056b0:	00 03 4f 01 		MOVE	(i0,1)+,a
  1056b4:	00 0e af fd 		MOVE	a,#0x2
  1056b8:	00 03 4f 01 		MOVE	(i0,1)+,a
  1056bc:	00 0e af fe 		MOVE	a,#0x1
  1056c0:	00 03 4f 01 		MOVE	(i0,1)+,a
  1056c4:	00 0e af f9 		MOVE	a,#0x6
  1056c8:	00 03 4f 01 		MOVE	(i0,1)+,a
  1056cc:	00 0e af e4 		MOVE	a,#0x1b
  1056d0:	00 03 4f 01 		MOVE	(i0,1)+,a
  1056d4:	00 0e af 00 		MOVE	a,#0xff
  1056d8:	00 03 4f 01 		MOVE	(i0,1)+,a
  1056dc:	00 0e af a5 		MOVE	a,#0x5a
  1056e0:	00 03 4f 01 		MOVE	(i0,1)+,a
  1056e4:	00 0e af ff 		MOVE	a,#0x0
  1056e8:	00 03 4f 01 		MOVE	(i0,1)+,a
  1056ec:	00 0e af 41 		MOVE	a,#0xbe
  1056f0:	00 03 4f 01 		MOVE	(i0,1)+,a
  1056f4:	00 0e af 53 		MOVE	a,#0xac
  1056f8:	00 03 4f 01 		MOVE	(i0,1)+,a
  1056fc:	00 0e ae e9 		MOVE	r0,#0x16
  105700:	00 3a eb 80 		CALLS	0x147f		; 1051fc <_DataInit_MemClear>
  105704:	00 0e af f2 		MOVE	a,#0xd
  105708:	00 03 4f 01 		MOVE	(i0,1)+,a
  10570c:	00 0e af 03 		MOVE	a,#0xfc
  105710:	00 03 4f 01 		MOVE	(i0,1)+,a
  105714:	00 0e af fd 		MOVE	a,#0x2
  105718:	00 03 4f 01 		MOVE	(i0,1)+,a
  10571c:	00 0e af ff 		MOVE	a,#0x0
  105720:	00 03 4f 01 		MOVE	(i0,1)+,a
  105724:	00 0e af fd 		MOVE	a,#0x2
  105728:	00 03 4f 01 		MOVE	(i0,1)+,a
  10572c:	00 0e af f0 		MOVE	a,#0xf
  105730:	00 03 4f 01 		MOVE	(i0,1)+,a
  105734:	00 0e af 03 		MOVE	a,#0xfc
  105738:	00 03 4f 01 		MOVE	(i0,1)+,a
  10573c:	00 0e af fd 		MOVE	a,#0x2
  105740:	00 03 4f 01 		MOVE	(i0,1)+,a
  105744:	00 0e af 7f 		MOVE	a,#0x80
  105748:	00 03 4f 01 		MOVE	(i0,1)+,a
  10574c:	00 0e af df 		MOVE	a,#0x20
  105750:	00 03 4f 01 		MOVE	(i0,1)+,a
  105754:	00 0e af fd 		MOVE	a,#0x2
  105758:	00 03 4f 01 		MOVE	(i0,1)+,a
  10575c:	00 0e af 03 		MOVE	a,#0xfc
  105760:	00 03 4f 01 		MOVE	(i0,1)+,a
  105764:	00 0e af f9 		MOVE	a,#0x6
  105768:	00 03 4f 01 		MOVE	(i0,1)+,a
  10576c:	00 0e ae f9 		MOVE	r0,#0x6
  105770:	00 3a eb 80 		CALLS	0x147f		; 1051fc <_DataInit_MemClear>
  105774:	00 0e af f9 		MOVE	a,#0x6
  105778:	00 03 4f 01 		MOVE	(i0,1)+,a
  10577c:	00 0e af df 		MOVE	a,#0x20
  105780:	00 03 4f 01 		MOVE	(i0,1)+,a
  105784:	00 0e af f0 		MOVE	a,#0xf
  105788:	00 03 4f 01 		MOVE	(i0,1)+,a
  10578c:	00 0e af 5f 		MOVE	a,#0xa0
  105790:	00 03 4f 01 		MOVE	(i0,1)+,a
  105794:	00 0e af ff 		MOVE	a,#0x0
  105798:	00 03 4f 01 		MOVE	(i0,1)+,a
  10579c:	00 0e af 5f 		MOVE	a,#0xa0
  1057a0:	00 03 4f 01 		MOVE	(i0,1)+,a
  1057a4:	00 0e af ff 		MOVE	a,#0x0
  1057a8:	00 03 4f 01 		MOVE	(i0,1)+,a
  1057ac:	00 0e af fc 		MOVE	a,#0x3
  1057b0:	00 03 4f 01 		MOVE	(i0,1)+,a
  1057b4:	00 0e ae f7 		MOVE	r0,#0x8
  1057b8:	00 3a eb 80 		CALLS	0x147f		; 1051fc <_DataInit_MemClear>
  1057bc:	00 0e af f8 		MOVE	a,#0x7
  1057c0:	00 03 4f 01 		MOVE	(i0,1)+,a
  1057c4:	00 0e af ff 		MOVE	a,#0x0
  1057c8:	00 03 4f 01 		MOVE	(i0,1)+,a
  1057cc:	00 0e af f7 		MOVE	a,#0x8
  1057d0:	00 03 4f 01 		MOVE	(i0,1)+,a
  1057d4:	00 0e ae fd 		MOVE	r0,#0x2
  1057d8:	00 0e ad df 		MOVE	r1,#0x20
  1057dc:	00 3a eb 7f 		CALLS	0x1480		; 105200 <_DataInit_MemSet>
  1057e0:	00 0e af e0 		MOVE	a,#0x1f
  1057e4:	00 03 4f 01 		MOVE	(i0,1)+,a
  1057e8:	00 0e af f0 		MOVE	a,#0xf
  1057ec:	00 03 4f 01 		MOVE	(i0,1)+,a
  1057f0:	00 0e af f6 		MOVE	a,#0x9
  1057f4:	00 03 4f 01 		MOVE	(i0,1)+,a
  1057f8:	00 0e af ba 		MOVE	a,#0x45
  1057fc:	00 03 4f 01 		MOVE	(i0,1)+,a
  105800:	00 0e af b2 		MOVE	a,#0x4d
  105804:	00 03 4f 01 		MOVE	(i0,1)+,a
  105808:	00 0e af bd 		MOVE	a,#0x42
  10580c:	00 03 4f 01 		MOVE	(i0,1)+,a
  105810:	00 0e af 9a 		MOVE	a,#0x65
  105814:	00 03 4f 01 		MOVE	(i0,1)+,a
  105818:	00 0e af 9e 		MOVE	a,#0x61
  10581c:	00 03 4f 01 		MOVE	(i0,1)+,a
  105820:	00 0e af 9c 		MOVE	a,#0x63
  105824:	00 03 4f 01 		MOVE	(i0,1)+,a
  105828:	00 0e af 90 		MOVE	a,#0x6f
  10582c:	00 03 4f 01 		MOVE	(i0,1)+,a
  105830:	00 0e af 91 		MOVE	a,#0x6e
  105834:	00 03 4f 01 		MOVE	(i0,1)+,a
  105838:	00 0e ae fa 		MOVE	r0,#0x5
  10583c:	00 0e ad cf 		MOVE	r1,#0x30
  105840:	00 3a eb 7f 		CALLS	0x1480		; 105200 <_DataInit_MemSet>
  105844:	00 0e af ff 		MOVE	a,#0x0
  105848:	00 03 4f 01 		MOVE	(i0,1)+,a
  10584c:	00 0e af f1 		MOVE	a,#0xe
  105850:	00 03 4f 01 		MOVE	(i0,1)+,a
  105854:	00 0e af 00 		MOVE	a,#0xff
  105858:	00 03 4f 01 		MOVE	(i0,1)+,a
  10585c:	00 0e af a5 		MOVE	a,#0x5a
  105860:	00 03 4f 01 		MOVE	(i0,1)+,a
  105864:	00 0e ae f3 		MOVE	r0,#0xc
  105868:	00 3a eb 80 		CALLS	0x147f		; 1051fc <_DataInit_MemClear>
  10586c:	00 0e af f7 		MOVE	a,#0x8
  105870:	00 03 4f 01 		MOVE	(i0,1)+,a
  105874:	00 0e ae fd 		MOVE	r0,#0x2
  105878:	00 0e ad df 		MOVE	r1,#0x20
  10587c:	00 3a eb 7f 		CALLS	0x1480		; 105200 <_DataInit_MemSet>
  105880:	00 0e af e0 		MOVE	a,#0x1f
  105884:	00 03 4f 01 		MOVE	(i0,1)+,a
  105888:	00 0e af fd 		MOVE	a,#0x2
  10588c:	00 03 4f 01 		MOVE	(i0,1)+,a
  105890:	00 0e af fe 		MOVE	a,#0x1
  105894:	00 03 4f 01 		MOVE	(i0,1)+,a
  105898:	00 0e af f9 		MOVE	a,#0x6
  10589c:	00 03 4f 01 		MOVE	(i0,1)+,a
  1058a0:	00 0e ae fd 		MOVE	r0,#0x2
  1058a4:	00 0e ad fc 		MOVE	r1,#0x3
  1058a8:	00 3a eb 7f 		CALLS	0x1480		; 105200 <_DataInit_MemSet>
  1058ac:	00 0e af 55 		MOVE	a,#0xaa
  1058b0:	00 03 4f 01 		MOVE	(i0,1)+,a
  1058b4:	00 0e af 01 		MOVE	a,#0xfe
  1058b8:	00 03 4f 01 		MOVE	(i0,1)+,a
  1058bc:	00 0e af e8 		MOVE	a,#0x17
  1058c0:	00 03 4f 01 		MOVE	(i0,1)+,a
  1058c4:	00 0e af e9 		MOVE	a,#0x16
  1058c8:	00 03 4f 01 		MOVE	(i0,1)+,a
  1058cc:	00 0e af 55 		MOVE	a,#0xaa
  1058d0:	00 03 4f 01 		MOVE	(i0,1)+,a
  1058d4:	00 0e af 01 		MOVE	a,#0xfe
  1058d8:	00 03 4f 01 		MOVE	(i0,1)+,a
  1058dc:	00 0e ae eb 		MOVE	r0,#0x14
  1058e0:	00 3a eb 80 		CALLS	0x147f		; 1051fc <_DataInit_MemClear>
  1058e4:	00 0e af fa 		MOVE	a,#0x5
  1058e8:	00 03 4f 01 		MOVE	(i0,1)+,a
  1058ec:	00 0e af fd 		MOVE	a,#0x2
  1058f0:	00 03 4f 01 		MOVE	(i0,1)+,a
  1058f4:	00 0e af fe 		MOVE	a,#0x1
  1058f8:	00 03 4f 01 		MOVE	(i0,1)+,a
  1058fc:	00 0e af 11 		MOVE	a,#0xee
  105900:	00 03 4f 01 		MOVE	(i0,1)+,a
  105904:	00 0e af 0c 		MOVE	a,#0xf3
  105908:	00 03 4f 01 		MOVE	(i0,1)+,a
  10590c:	00 0e af f1 		MOVE	a,#0xe
  105910:	00 03 4f 01 		MOVE	(i0,1)+,a
  105914:	00 0e af 96 		MOVE	a,#0x69
  105918:	00 03 4f 01 		MOVE	(i0,1)+,a
  10591c:	00 0e af 61 		MOVE	a,#0x9e
  105920:	00 03 4f 01 		MOVE	(i0,1)+,a
  105924:	00 0e af 43 		MOVE	a,#0xbc
  105928:	00 03 4f 01 		MOVE	(i0,1)+,a
  10592c:	00 0e af 7f 		MOVE	a,#0x80
  105930:	00 03 4f 01 		MOVE	(i0,1)+,a
  105934:	00 0e af 1e 		MOVE	a,#0xe1
  105938:	00 03 4f 01 		MOVE	(i0,1)+,a
  10593c:	00 0e af 0c 		MOVE	a,#0xf3
  105940:	00 03 4f 01 		MOVE	(i0,1)+,a
  105944:	00 0e af ee 		MOVE	a,#0x11
  105948:	00 03 4f 01 		MOVE	(i0,1)+,a
  10594c:	00 0e af 1c 		MOVE	a,#0xe3
  105950:	00 03 4f 01 		MOVE	(i0,1)+,a
  105954:	00 0e af 65 		MOVE	a,#0x9a
  105958:	00 03 4f 01 		MOVE	(i0,1)+,a
  10595c:	00 0e af f0 		MOVE	a,#0xf
  105960:	00 03 4f 01 		MOVE	(i0,1)+,a
  105964:	00 0e af f3 		MOVE	a,#0xc
  105968:	00 03 4f 01 		MOVE	(i0,1)+,a
  10596c:	00 0e af 0c 		MOVE	a,#0xf3
  105970:	00 03 4f 01 		MOVE	(i0,1)+,a
  105974:	00 0e af 11 		MOVE	a,#0xee
  105978:	00 03 4f 01 		MOVE	(i0,1)+,a
  10597c:	00 0e af c4 		MOVE	a,#0x3b
  105980:	00 03 4f 01 		MOVE	(i0,1)+,a
  105984:	00 0e af 3f 		MOVE	a,#0xc0
  105988:	00 03 4f 01 		MOVE	(i0,1)+,a
  10598c:	00 0e af ed 		MOVE	a,#0x12
  105990:	00 03 4f 01 		MOVE	(i0,1)+,a
  105994:	00 0e af ff 		MOVE	a,#0x0
  105998:	00 03 4f 01 		MOVE	(i0,1)+,a
  10599c:	00 0e af a5 		MOVE	a,#0x5a
  1059a0:	00 03 4f 01 		MOVE	(i0,1)+,a
  1059a4:	00 0e af ca 		MOVE	a,#0x35
  1059a8:	00 03 4f 01 		MOVE	(i0,1)+,a
  1059ac:	00 0e af b2 		MOVE	a,#0x4d
  1059b0:	00 03 4f 01 		MOVE	(i0,1)+,a
  1059b4:	00 0e af ff 		MOVE	a,#0x0
  1059b8:	00 03 4f 01 		MOVE	(i0,1)+,a
  1059bc:	00 0e af fc 		MOVE	a,#0x3
  1059c0:	00 03 4f 01 		MOVE	(i0,1)+,a
  1059c4:	00 0e af 17 		MOVE	a,#0xe8
  1059c8:	00 03 4f 01 		MOVE	(i0,1)+,a
  1059cc:	00 0e af fa 		MOVE	a,#0x5
  1059d0:	00 03 4f 01 		MOVE	(i0,1)+,a
  1059d4:	00 0e af c0 		MOVE	a,#0x3f
  1059d8:	00 03 4f 01 		MOVE	(i0,1)+,a
  1059dc:	00 0e af fc 		MOVE	a,#0x3
  1059e0:	00 03 4f 01 		MOVE	(i0,1)+,a
  1059e4:	00 0e af 34 		MOVE	a,#0xcb
  1059e8:	00 03 4f 01 		MOVE	(i0,1)+,a
  1059ec:	00 0e ae fd 		MOVE	r0,#0x2
  1059f0:	00 3a eb 80 		CALLS	0x147f		; 1051fc <_DataInit_MemClear>
  1059f4:	00 0e af 96 		MOVE	a,#0x69
  1059f8:	00 03 4f 01 		MOVE	(i0,1)+,a
  1059fc:	00 0e af 61 		MOVE	a,#0x9e
  105a00:	00 03 4f 01 		MOVE	(i0,1)+,a
  105a04:	00 0e af 43 		MOVE	a,#0xbc
  105a08:	00 03 4f 01 		MOVE	(i0,1)+,a
  105a0c:	00 0e af 7f 		MOVE	a,#0x80
  105a10:	00 03 4f 01 		MOVE	(i0,1)+,a
  105a14:	00 0e af 1e 		MOVE	a,#0xe1
  105a18:	00 03 4f 01 		MOVE	(i0,1)+,a
  105a1c:	00 0e af 65 		MOVE	a,#0x9a
  105a20:	00 03 4f 01 		MOVE	(i0,1)+,a
  105a24:	00 0e af f0 		MOVE	a,#0xf
  105a28:	00 03 4f 01 		MOVE	(i0,1)+,a
  105a2c:	00 0e af f3 		MOVE	a,#0xc
  105a30:	00 03 4f 01 		MOVE	(i0,1)+,a
  105a34:	00 0e af 0c 		MOVE	a,#0xf3
  105a38:	00 03 4f 01 		MOVE	(i0,1)+,a
  105a3c:	00 0e af 11 		MOVE	a,#0xee
  105a40:	00 03 4f 01 		MOVE	(i0,1)+,a
  105a44:	00 0e af fa 		MOVE	a,#0x5
  105a48:	00 03 4f 01 		MOVE	(i0,1)+,a
  105a4c:	00 0e af fd 		MOVE	a,#0x2
  105a50:	00 03 4f 01 		MOVE	(i0,1)+,a
  105a54:	00 0e af fe 		MOVE	a,#0x1
  105a58:	00 03 4f 01 		MOVE	(i0,1)+,a
  105a5c:	00 0e af 11 		MOVE	a,#0xee
  105a60:	00 03 4f 01 		MOVE	(i0,1)+,a
  105a64:	00 0e af 0c 		MOVE	a,#0xf3
  105a68:	00 03 4f 01 		MOVE	(i0,1)+,a
  105a6c:	00 0e af f1 		MOVE	a,#0xe
  105a70:	00 03 4f 01 		MOVE	(i0,1)+,a
  105a74:	00 0e af fe 		MOVE	a,#0x1
  105a78:	00 03 4f 01 		MOVE	(i0,1)+,a
  105a7c:	00 0e af f3 		MOVE	a,#0xc
  105a80:	00 03 4f 01 		MOVE	(i0,1)+,a
  105a84:	00 0e af 9a 		MOVE	a,#0x65
  105a88:	00 03 4f 01 		MOVE	(i0,1)+,a
  105a8c:	00 0e af 92 		MOVE	a,#0x6d
  105a90:	00 03 4f 01 		MOVE	(i0,1)+,a
  105a94:	00 0e af 9b 		MOVE	a,#0x64
  105a98:	00 03 4f 01 		MOVE	(i0,1)+,a
  105a9c:	00 0e af 9a 		MOVE	a,#0x65
  105aa0:	00 03 4f 01 		MOVE	(i0,1)+,a
  105aa4:	00 0e af 89 		MOVE	a,#0x76
  105aa8:	00 03 4f 01 		MOVE	(i0,1)+,a
  105aac:	00 0e af 9a 		MOVE	a,#0x65
  105ab0:	00 03 4f 01 		MOVE	(i0,1)+,a
  105ab4:	00 0e af 93 		MOVE	a,#0x6c
  105ab8:	00 03 4f 01 		MOVE	(i0,1)+,a
  105abc:	00 0e af 90 		MOVE	a,#0x6f
  105ac0:	00 03 4f 01 		MOVE	(i0,1)+,a
  105ac4:	00 0e af 8f 		MOVE	a,#0x70
  105ac8:	00 03 4f 01 		MOVE	(i0,1)+,a
  105acc:	00 0e af 9a 		MOVE	a,#0x65
  105ad0:	00 03 4f 01 		MOVE	(i0,1)+,a
  105ad4:	00 0e af 8d 		MOVE	a,#0x72
  105ad8:	00 03 4f 01 		MOVE	(i0,1)+,a
  105adc:	00 0e af f8 		MOVE	a,#0x7
  105ae0:	00 03 4f 01 		MOVE	(i0,1)+,a
  105ae4:	00 0e ae e4 		MOVE	r0,#0x1b
  105ae8:	00 3a eb 80 		CALLS	0x147f		; 1051fc <_DataInit_MemClear>
  105aec:	00 0e af ba 		MOVE	a,#0x45
  105af0:	00 03 4f 01 		MOVE	(i0,1)+,a
  105af4:	00 0e af b2 		MOVE	a,#0x4d
  105af8:	00 03 4f 01 		MOVE	(i0,1)+,a
  105afc:	00 0e af fc 		MOVE	a,#0x3
  105b00:	00 03 4f 01 		MOVE	(i0,1)+,a
  105b04:	00 0e ae e4 		MOVE	r0,#0x1b
  105b08:	00 3a eb 80 		CALLS	0x147f		; 1051fc <_DataInit_MemClear>
  105b0c:	00 0e af 00 		MOVE	a,#0xff
  105b10:	00 03 4f 01 		MOVE	(i0,1)+,a
  105b14:	00 0e af 90 		MOVE	a,#0x6f
  105b18:	00 03 4f 01 		MOVE	(i0,1)+,a
  105b1c:	00 0e af ff 		MOVE	a,#0x0
  105b20:	00 03 4f 01 		MOVE	(i0,1)+,a
  105b24:	00 0e af bf 		MOVE	a,#0x40
  105b28:	00 03 4f 01 		MOVE	(i0,1)+,a
  105b2c:	00 0e af 00 		MOVE	a,#0xff
  105b30:	00 03 4f 01 		MOVE	(i0,1)+,a
  105b34:	00 0e af ff 		MOVE	a,#0x0
  105b38:	00 03 4f 01 		MOVE	(i0,1)+,a
  105b3c:	00 16 a9 01 		MOVE	iph,(i3,1)+
  105b40:	00 16 a8 01 		MOVE	ipl,(i3,1)+
  105b44:	00 23 ff ff 		JUMP	ip
